ccollections
defaultdict
p0
(c__builtin__
list
p1
tp2
Rp3
S'DB09161'
p4
(lp5
S'Edema'
p6
asS'DB09163'
p7
(lp8
g6
aS'Anaphylactic reaction'
p9
asS'DB09165'
p10
(lp11
S'Myocardial infarction'
p12
asS'DB05109'
p13
(lp14
S'Peripheral neuropathy'
p15
aS'Thrombocytopenia'
p16
ag6
ag9
asS'DB01410'
p17
(lp18
S'Pneumonia'
p19
asS'DB11231'
p20
(lp21
S'Hemorrhage'
p22
asS'DB01179'
p23
(lp24
g22
ag6
asS'DB01177'
p25
(lp26
S'Sepsis'
p27
ag12
ag22
asS'DB01174'
p28
(lp29
S'Delirium'
p30
aS'Gastric ulcer'
p31
aS'Hypertension'
p32
aS'Stevens-Johnson Syndrome'
p33
ag9
asS'DB01175'
p34
(lp35
S'Serotonin syndrome'
p36
aS'QT Prolongation'
p37
aS'Neuroleptic malignant syndrome'
p38
aS'Tardive dyskinesia'
p39
ag30
aS'Generalized tonic-clonic seizure'
p40
aS'Completed suicide'
p41
aS'Deep vein thrombosis'
p42
aS'Ventricular tachycardia'
p43
aS'Hepatic necrosis'
p44
aS'Hemolytic anemia'
p45
aS'Pancreatitis'
p46
ag22
ag33
ag12
aS'Agranulocytosis'
p47
ag32
ag16
ag6
ag9
asS'DB01173'
p48
(lp49
g22
ag9
asS'DB01956'
p50
(lp51
g27
aS'Pulmonary edema'
p52
ag45
ag6
asS'DB00594'
p53
(lp54
g52
ag45
ag46
ag47
ag16
ag33
ag6
ag9
asS'DB01551'
p55
(lp56
S'Sleep apnea syndrome'
p57
ag36
ag46
ag47
ag32
ag16
ag33
ag9
asS'DB01009'
p58
(lp59
g27
ag44
ag46
ag33
ag47
ag12
ag32
ag16
ag22
ag6
ag9
asS'DB01006'
p60
(lp61
g37
ag12
ag32
ag16
ag6
ag9
asS'DB01004'
p62
(lp63
g43
ag27
aS'Cardiac arrest'
p64
ag19
ag15
ag16
ag45
ag46
ag33
ag47
ag32
ag22
ag6
ag9
asS'DB01005'
p65
(lp66
g15
ag46
ag16
ag6
ag22
asS'DB00571'
p67
(lp68
g64
ag47
ag32
ag12
aS'Myopathy'
p69
ag33
aS'Sleep disorder'
p70
ag46
ag16
ag9
asS'DB00570'
p71
(lp72
g15
ag12
ag22
ag16
ag32
asS'DB01008'
p73
(lp74
g30
ag19
aS'Interstitial lung disease'
p75
ag46
ag32
ag16
ag27
ag6
ag22
asS'DB00572'
p76
(lp77
g64
ag30
ag31
ag46
ag43
ag9
ag32
ag33
ag52
ag27
ag12
ag22
ag6
asS'DB00575'
p78
(lp79
g30
ag70
ag32
ag16
ag12
ag47
ag46
asS'DB00576'
p80
(lp81
g15
ag47
ag46
asS'DB00750'
p82
(lp83
g69
ag64
ag31
ag27
ag19
ag52
ag32
ag15
ag46
ag47
ag12
ag6
ag16
ag22
ag9
asS'DB00753'
p84
(lp85
g44
ag64
asS'DB00752'
p86
(lp87
g41
ag47
ag16
ag32
ag22
ag6
asS'DB00755'
p88
(lp89
g27
ag64
ag19
ag46
ag12
ag22
ag6
ag9
asS'DB00978'
p90
(lp91
g44
ag33
ag45
ag15
ag47
ag70
ag52
ag16
ag32
ag6
ag12
ag9
asS'DB00757'
p92
(lp93
g36
ag30
ag43
ag70
ag64
ag46
ag16
ag6
ag9
asS'DB00208'
p94
(lp95
g27
ag44
ag15
ag45
ag33
ag16
ag22
ag9
asS'DB00975'
p96
(lp97
g43
ag64
ag32
aS'Proteinuria'
p98
ag12
ag52
ag46
ag33
ag16
ag22
ag9
asS'DB00206'
p99
(lp100
g41
ag47
ag46
ag16
ag33
ag45
ag15
ag52
ag6
ag12
ag22
asS'DB00205'
p101
(lp102
g33
ag16
ag9
asS'DB00976'
p103
(lp104
g69
ag44
ag46
ag9
asS'DB00971'
p105
(lp106
g12
asS'DB00202'
p107
(lp108
g69
ag64
ag32
ag9
asS'DB00201'
p109
(lp110
g31
ag22
ag15
ag45
ag27
ag57
ag47
ag32
ag52
ag16
ag36
ag6
ag46
ag33
ag9
asS'DB00972'
p111
(lp112
g70
ag32
ag6
ag9
asS'DB00683'
p113
(lp114
g30
ag70
ag64
asS'DB00682'
p115
(lp116
S'Hyperlipidemia'
p117
ag46
ag32
ag22
ag6
ag16
ag9
asS'DB00681'
p118
(lp119
g117
ag27
ag64
ag52
ag15
ag32
ag16
ag9
ag6
ag19
ag22
ag47
ag33
ag12
asS'DB00687'
p120
(lp121
g69
ag46
ag32
ag22
ag6
asS'DB00686'
p122
(lp123
g16
ag22
ag6
asS'DB00685'
p124
(lp125
g44
ag27
ag33
ag47
ag46
ag16
ag32
ag6
ag9
ag22
asS'DB00684'
p126
(lp127
g98
ag33
ag16
ag9
asS'DB00373'
p128
(lp129
g64
ag44
ag52
ag32
ag33
ag47
ag12
ag6
ag9
asS'DB00371'
p130
(lp131
g98
ag52
ag33
ag45
ag46
ag47
ag16
ag9
ag22
asS'DB00370'
p132
(lp133
g37
ag36
ag40
ag30
ag41
ag38
ag19
ag46
ag47
ag43
ag12
ag33
ag32
ag16
ag6
asS'DB00377'
p134
(lp135
g36
ag37
ag30
ag32
ag9
asS'DB00376'
p136
(lp137
g39
ag38
ag19
ag32
asS'DB00375'
p138
(lp139
g22
asS'DB00374'
p140
(lp141
g27
ag19
ag16
ag22
ag6
asS'DB00379'
p142
(lp143
g44
ag33
ag46
ag47
ag32
ag16
ag6
ag64
ag12
asS'DB06230'
p144
(lp145
g43
ag52
ag32
asS'DB06237'
p146
(lp147
g42
ag117
ag22
ag32
asS'DB10897'
p148
(lp149
g9
asS'DB10896'
p150
(lp151
g9
asS'DB10895'
p152
(lp153
g9
asS'DB00635'
p154
(lp155
g69
ag27
ag32
ag30
ag46
ag9
ag52
ag64
ag15
ag22
ag12
ag6
asS'DB10892'
p156
(lp157
g9
asS'DB10891'
p158
(lp159
g9
asS'DB04854'
p160
(lp161
g98
ag117
ag46
ag12
ag32
ag16
ag33
ag47
ag6
ag9
asS'DB04855'
p162
(lp163
g75
ag37
ag9
asS'DB05239'
p164
(lp165
g22
ag16
ag32
asS'DB09535'
p166
(lp167
g9
asS'DB00199'
p168
(lp169
g37
ag43
ag64
ag33
ag44
ag46
ag15
ag45
ag9
ag47
ag16
ag6
asS'DB00198'
p170
(lp171
g30
ag19
ag33
ag9
asS'DB00196'
p172
(lp173
g37
ag69
ag33
ag47
ag16
ag22
ag9
asS'DB00195'
p174
(lp175
g98
ag117
ag9
ag6
ag64
ag19
ag15
ag47
ag12
ag16
asS'DB00193'
p176
(lp177
g36
ag98
ag70
ag33
ag52
ag32
ag37
ag57
ag41
ag9
ag19
ag30
ag46
ag12
ag16
asS'DB00191'
p178
(lp179
g41
ag70
ag6
ag46
ag33
asS'DB00190'
p180
(lp181
g38
ag19
ag70
ag15
ag45
ag47
ag32
ag12
ag16
ag43
ag6
ag22
asS'DB06699'
p182
(lp183
g32
ag9
asS'DB06697'
p184
(lp185
g98
ag70
ag19
ag9
asS'DB06695'
p186
(lp187
g22
ag9
asS'DB06692'
p188
(lp189
g42
ag43
ag19
ag64
ag27
ag52
ag32
ag16
ag12
ag9
ag22
asS'DB00997'
p190
(lp191
g43
ag27
ag42
ag19
ag52
ag15
ag64
ag16
ag22
ag33
ag9
asS'DB00996'
p192
(lp193
g42
ag19
ag117
ag41
ag27
ag33
ag15
ag46
ag52
ag32
ag16
ag12
ag6
ag22
ag9
asS'DB00995'
p194
(lp195
g75
ag98
ag15
ag47
ag16
ag22
asS'DB00994'
p196
(lp197
g31
ag6
ag22
ag9
ag27
ag64
asS'DB00993'
p198
(lp199
g75
ag46
ag32
ag16
ag22
asS'DB00992'
p200
(lp201
g6
ag22
asS'DB00991'
p202
(lp203
S'Visual acuity reduced'
p204
ag98
ag27
ag44
ag19
ag45
ag33
ag46
ag47
ag12
ag32
ag16
ag22
ag6
ag9
asS'DB00990'
p205
(lp206
g31
ag12
ag32
ag6
asS'DB10418'
p207
(lp208
g9
asS'DB10415'
p209
(lp210
g9
asS'DB00998'
p211
(lp212
g36
ag43
ag12
ag32
ag22
ag9
asS'DB10527'
p213
(lp214
g9
asS'DB10525'
p215
(lp216
g6
ag9
asS'DB10523'
p217
(lp218
g9
asS'DB10520'
p219
(lp220
g9
asS'DB10528'
p221
(lp222
g9
asS'DB05245'
p223
(lp224
g27
ag44
ag45
ag47
ag33
ag16
asS'DB05246'
p225
(lp226
g40
ag98
ag41
ag33
asS'DB14575'
p227
(lp228
g41
ag47
ag33
ag16
ag32
ag9
asS'DB14577'
p229
(lp230
g31
ag40
ag30
ag22
ag52
ag117
ag64
ag27
ag45
ag46
ag33
ag32
ag12
ag16
ag6
ag9
asS'DB14570'
p231
(lp232
g42
ag12
ag22
ag32
ag6
asS'DB11063'
p233
(lp234
g6
asS'DB10664'
p235
(lp236
g9
asS'DB10667'
p237
(lp238
g9
asS'DB10660'
p239
(lp240
g9
asS'DB10662'
p241
(lp242
g9
asS'DB10663'
p243
(lp244
g9
asS'DB09345'
p245
(lp246
g12
ag22
ag32
asS'DB10842'
p247
(lp248
g6
ag9
asS'DB01128'
p249
(lp250
g75
ag27
ag19
ag15
ag64
ag12
ag32
ag6
asS'DB00702'
p251
(lp252
g27
ag52
ag46
ag16
ag32
ag6
ag9
asS'DB09009'
p253
(lp254
g64
ag15
ag32
ag6
ag22
ag9
asS'DB01010'
p255
(lp256
g64
asS'DB01764'
p257
(lp258
g40
ag64
ag45
ag15
ag46
ag6
asS'DB12793'
p259
(lp260
g22
asS'DB01362'
p261
(lp262
S'Cerebral infarction'
p263
ag98
ag43
ag52
ag64
ag15
ag12
ag27
ag6
ag32
ag9
asS'DB01367'
p264
(lp265
g36
ag75
ag42
ag38
ag43
ag30
ag31
ag70
ag15
ag12
ag32
ag22
asS'DB01364'
p266
(lp267
g30
ag32
asS'DB01369'
p268
(lp269
g40
ag64
ag45
ag15
ag46
ag6
asS'DB01109'
p270
(lp271
g117
ag42
ag32
ag12
ag16
ag52
ag22
ag6
asS'DB01101'
p272
(lp273
g27
ag64
ag15
ag47
ag12
ag16
ag22
ag33
ag6
asS'DB01100'
p274
(lp275
g39
ag40
ag38
ag19
ag45
ag47
ag32
asS'DB01104'
p276
(lp277
g36
ag38
ag30
ag43
ag41
ag37
ag33
ag46
ag47
ag32
ag12
ag16
ag6
ag22
ag9
asS'DB12243'
p278
(lp279
g9
asS'DB06823'
p280
(lp281
g98
ag47
ag16
ag22
asS'DB00566'
p282
(lp283
g98
ag15
asS'DB00567'
p284
(lp285
g33
ag45
ag47
ag16
ag9
ag22
asS'DB00564'
p286
(lp287
g38
ag19
ag15
ag41
ag46
ag47
ag12
ag32
ag16
ag6
ag33
ag22
asS'DB00565'
p288
(lp289
g69
ag9
asS'DB00563'
p290
(lp291
g75
ag42
ag98
ag27
ag19
ag117
ag46
ag33
ag47
ag16
ag22
ag9
asS'DB00560'
p292
(lp293
g27
ag46
ag33
ag16
ag9
asS'DB00561'
p294
(lp295
g43
ag32
asS'DB00569'
p296
(lp297
g12
ag16
ag32
ag22
ag9
asS'DB13867'
p298
(lp299
g43
ag70
ag19
ag15
ag27
ag32
ag6
ag16
ag22
ag12
ag9
asS'DB11118'
p300
(lp301
g12
ag31
ag69
ag22
ag27
ag64
ag52
ag15
ag46
ag32
ag6
ag9
asS'DB13868'
p302
(lp303
g69
ag46
ag32
asS'DB01563'
p304
(lp305
g33
ag32
ag9
asS'DB00968'
p306
(lp307
g44
ag45
ag46
ag52
ag47
ag16
ag33
ag6
ag9
asS'DB00969'
p308
(lp309
g22
asS'DB00218'
p310
(lp311
g37
ag117
ag44
ag64
ag15
ag47
ag33
ag16
ag32
ag6
ag9
asS'DB01611'
p312
(lp313
g69
ag41
ag15
ag33
ag47
ag16
ag6
asS'DB00749'
p314
(lp315
g98
ag31
ag27
ag44
ag19
ag45
ag46
ag33
ag47
ag12
ag32
ag16
ag22
ag6
ag9
asS'DB00746'
p316
(lp317
g15
ag16
ag9
asS'DB00747'
p318
(lp319
g30
ag31
ag32
ag33
ag9
asS'DB00216'
p320
(lp321
g36
ag69
ag43
ag70
ag15
ag12
ag32
ag22
ag6
ag9
asS'DB00745'
p322
(lp323
g70
ag64
ag33
ag47
ag32
ag16
ag6
ag9
asS'DB00742'
p324
(lp325
g52
ag32
ag12
ag6
asS'DB00211'
p326
(lp327
g32
asS'DB00740'
p328
(lp329
g57
ag75
ag30
ag41
ag43
ag27
ag64
ag19
ag52
ag15
ag46
ag12
ag32
ag22
ag6
ag9
asS'DB01618'
p330
(lp331
g39
ag38
ag19
ag47
asS'DB00573'
p332
(lp333
g44
ag52
ag45
ag46
ag47
ag33
ag12
ag16
ag22
ag32
ag6
ag9
asS'DB01589'
p334
(lp335
g70
ag9
asS'DB00690'
p336
(lp337
g70
ag9
asS'DB00692'
p338
(lp339
g12
ag32
asS'DB00693'
p340
(lp341
g64
ag9
asS'DB00694'
p342
(lp343
g57
ag31
ag30
ag70
ag43
ag64
ag27
ag19
ag22
ag12
ag16
ag32
ag6
ag9
asS'DB00695'
p344
(lp345
g45
ag46
ag47
ag16
ag33
ag9
asS'DB00696'
p346
(lp347
g32
asS'DB00697'
p348
(lp349
g117
ag43
ag27
ag19
ag15
ag12
ag32
ag16
ag33
ag6
ag9
asS'DB00698'
p350
(lp351
g75
ag44
ag15
ag45
ag33
ag46
ag47
ag16
ag9
asS'DB00360'
p352
(lp353
g12
ag9
asS'DB00361'
p354
(lp355
g75
ag42
ag27
ag19
ag52
ag15
ag46
ag12
ag16
ag32
ag9
asS'DB00362'
p356
(lp357
g42
ag44
ag27
ag19
ag16
ag32
ag9
asS'DB00363'
p358
(lp359
g37
ag39
ag57
ag38
ag42
ag30
ag31
ag43
ag27
ag44
ag64
ag19
ag46
ag33
ag47
ag12
ag16
ag32
ag6
asS'DB00364'
p360
(lp361
g6
ag9
asS'DB06802'
p362
(lp363
g32
asS'DB00366'
p364
(lp365
g31
ag22
ag40
asS'DB00367'
p366
(lp367
g117
ag42
ag46
ag27
ag41
ag12
ag32
ag22
ag6
ag9
asS'DB06809'
p368
(lp369
g16
ag22
ag9
asS'DB06209'
p370
(lp371
g117
ag32
ag16
ag22
ag9
asS'DB10889'
p372
(lp373
g9
asS'DB10884'
p374
(lp375
g9
asS'DB06204'
p376
(lp377
g36
ag57
ag6
ag9
asS'DB10886'
p378
(lp379
g9
asS'DB06206'
p380
(lp381
g37
ag43
ag52
ag64
ag22
ag32
ag9
asS'DB06201'
p382
(lp383
g41
ag33
ag16
asS'DB06203'
p384
(lp385
g27
ag46
ag33
ag12
ag32
ag6
ag9
asS'DB10883'
p386
(lp387
g9
asS'DB00486'
p388
(lp389
g70
ag32
asS'DB00979'
p390
(lp391
g32
asS'DB00754'
p392
(lp393
g41
ag33
asS'DB00209'
p394
(lp395
g30
ag33
ag9
asS'DB00759'
p396
(lp397
g45
ag15
ag46
ag16
ag33
ag22
ag9
asS'DB00188'
p398
(lp399
g40
ag75
ag42
ag43
ag52
ag27
ag64
ag15
ag19
ag33
ag12
ag22
ag16
ag32
ag6
ag9
asS'DB00758'
p400
(lp401
g75
ag31
ag46
ag33
ag47
ag16
ag19
ag22
asS'DB00184'
p402
(lp403
g70
ag12
ag31
ag32
asS'DB00185'
p404
(lp405
g42
ag117
ag30
ag31
ag27
ag19
ag15
ag12
ag16
ag32
ag22
ag6
asS'DB00186'
p406
(lp407
g30
ag40
ag38
ag64
ag52
ag57
ag32
ag16
ag41
ag70
ag47
asS'DB00187'
p408
(lp409
g52
ag64
ag12
ag6
ag9
asS'DB00180'
p410
(lp411
g6
ag19
ag32
asS'DB00181'
p412
(lp413
g38
ag42
ag41
ag27
ag19
ag32
asS'DB00182'
p414
(lp415
g33
ag32
ag12
ag36
ag9
ag30
ag52
asS'DB00204'
p416
(lp417
g43
ag64
ag12
ag32
ag6
asS'DB00203'
p418
(lp419
g117
ag64
ag15
ag52
ag32
ag12
ag22
ag6
asS'DB00970'
p420
(lp421
g27
ag47
ag16
ag6
asS'DB00973'
p422
(lp423
g75
ag69
ag46
ag27
ag15
ag45
ag33
ag16
ag6
ag9
asS'DB00200'
p424
(lp425
g9
ag6
asS'DB10408'
p426
(lp427
g6
ag9
asS'DB00987'
p428
(lp429
g75
ag57
ag27
ag31
ag19
ag30
ag52
ag70
ag15
ag43
ag46
ag64
ag16
ag22
ag12
ag32
ag6
ag9
asS'DB00980'
p430
(lp431
g41
ag70
ag9
asS'DB00982'
p432
(lp433
g98
ag41
ag70
ag46
ag47
ag16
ag6
ag9
ag117
ag33
asS'DB00983'
p434
(lp435
g64
ag70
ag12
ag15
ag32
ag19
ag6
ag9
asS'DB10403'
p436
(lp437
g9
ag6
asS'DB10404'
p438
(lp439
g9
ag6
asS'DB00989'
p440
(lp441
g42
ag117
ag30
ag31
ag19
ag64
ag15
ag46
ag33
ag12
ag32
ag16
ag22
ag6
asS'DB01149'
p442
(lp443
g36
ag40
ag38
ag30
ag41
ag43
ag44
ag19
ag33
ag32
ag16
ag9
ag22
asS'DB06595'
p444
(lp445
g37
ag75
ag52
ag27
ag19
ag12
ag16
ag32
ag6
asS'DB06372'
p446
(lp447
g22
ag6
asS'DB10534'
p448
(lp449
g9
asS'DB10535'
p450
(lp451
g9
asS'DB10536'
p452
(lp453
g9
asS'DB10537'
p454
(lp455
g9
asS'DB10530'
p456
(lp457
g9
asS'DB10531'
p458
(lp459
g9
asS'DB10532'
p460
(lp461
g9
asS'DB10533'
p462
(lp463
g9
asS'DB10538'
p464
(lp465
g9
asS'DB10539'
p466
(lp467
g9
asS'DB05271'
p468
(lp469
g38
ag30
ag70
ag32
ag6
asS'DB14098'
p470
(lp471
g22
asS'DB00314'
p472
(lp473
g16
ag22
asS'DB14547'
p474
(lp475
g52
ag64
ag40
ag69
ag117
ag30
ag70
ag27
ag9
ag43
ag19
ag45
ag46
ag47
ag15
ag33
ag12
ag6
ag32
ag22
ag16
asS'DB14546'
p476
(lp477
g40
ag52
ag64
ag9
asS'DB10659'
p478
(lp479
g9
asS'DB10658'
p480
(lp481
g9
asS'DB11750'
p482
(lp483
g6
asS'DB03619'
p484
(lp485
g22
ag32
ag6
asS'DB10653'
p486
(lp487
g9
asS'DB10652'
p488
(lp489
g9
asS'DB10655'
p490
(lp491
g9
asS'DB10654'
p492
(lp493
g9
asS'DB10657'
p494
(lp495
g9
asS'DB10656'
p496
(lp497
g9
asS'DB09036'
p498
(lp499
g16
ag6
ag9
asS'DB09352'
p500
(lp501
g12
asS'DB09357'
p502
(lp503
g16
ag6
ag9
asS'DB09297'
p504
(lp505
g70
ag33
ag22
ag32
ag6
asS'DB12905'
p506
(lp507
g19
ag16
ag32
ag22
asS'DB00763'
p508
(lp509
g44
ag47
ag16
ag6
ag22
asS'DB05013'
p510
(lp511
g9
asS'DB05015'
p512
(lp513
g27
ag19
ag16
asS'DB00270'
p514
(lp515
g12
ag6
asS'DB05294'
p516
(lp517
g37
ag75
ag98
ag43
ag46
ag33
ag16
ag22
ag32
ag6
asS'DB09102'
p518
(lp519
g64
asS'DB09101'
p520
(lp521
g69
ag98
ag19
ag15
ag46
asS'DB09107'
p522
(lp523
g42
ag33
ag12
ag22
ag32
ag9
asS'DB09104'
p524
(lp525
g98
ag44
ag33
ag45
ag46
ag47
ag16
ag6
ag9
ag22
asS'DB01373'
p526
(lp527
g9
ag30
ag64
ag22
asS'DB01377'
p528
(lp529
g22
ag32
asS'DB01378'
p530
(lp531
g12
ag39
ag40
ag38
ag52
ag117
ag41
ag64
ag27
ag45
ag19
ag47
ag46
ag32
ag33
ag6
ag22
ag16
ag9
asS'DB10349'
p532
(lp533
g9
ag6
asS'DB10348'
p534
(lp535
g6
ag9
asS'DB10343'
p536
(lp537
g27
ag16
ag22
asS'DB10344'
p538
(lp539
g9
asS'DB01118'
p540
(lp541
g30
ag75
ag69
ag19
ag52
ag64
ag45
ag33
ag46
ag70
ag47
ag15
ag16
ag6
ag12
ag22
asS'DB01119'
p542
(lp543
g16
ag22
ag32
asS'DB10894'
p544
(lp545
g9
asS'DB01110'
p546
(lp547
g22
ag9
asS'DB06605'
p548
(lp549
g22
ag16
ag9
asS'DB01112'
p550
(lp551
g33
ag45
ag47
ag16
ag9
ag22
asS'DB01115'
p552
(lp553
g70
ag52
ag33
ag45
ag64
ag12
ag16
ag6
ag9
asS'DB01117'
p554
(lp555
g52
ag19
ag46
ag33
ag16
ag9
asS'DB09409'
p556
(lp557
g52
ag6
asS'DB00513'
p558
(lp559
g40
ag69
ag30
ag47
ag16
ag6
ag9
asS'DB00512'
p560
(lp561
g64
ag47
ag33
ag16
ag22
ag9
asS'DB00515'
p562
(lp563
g15
ag45
ag12
ag16
ag6
asS'DB00514'
p564
(lp565
g69
ag32
ag6
ag45
ag38
ag31
ag57
ag47
ag30
ag16
ag22
ag36
ag19
ag43
asS'DB00519'
p566
(lp567
g69
ag44
ag98
ag46
ag52
ag16
ag33
ag12
ag6
asS'DB00518'
p568
(lp569
g47
ag33
ag16
ag32
asS'DB13873'
p570
(lp571
g42
ag69
ag47
ag33
ag19
ag12
ag16
ag32
ag22
ag6
asS'DB11104'
p572
(lp573
g43
ag64
ag32
ag9
asS'DB11105'
p574
(lp575
g31
ag12
ag22
ag44
ag64
ag45
ag46
ag47
ag33
ag16
ag32
ag6
ag9
asS'DB01576'
p576
(lp577
g33
ag32
ag36
ag12
ag9
ag30
ag52
asS'DB11100'
p578
(lp579
g22
asS'DB01606'
p580
(lp581
g40
ag43
ag31
ag64
ag52
ag46
ag47
ag33
ag12
ag45
ag32
ag16
ag22
ag6
ag9
asS'DB00738'
p582
(lp583
g75
ag43
ag31
ag15
ag46
ag33
ag27
ag19
ag32
ag16
ag6
ag9
asS'DB01601'
p584
(lp585
g263
ag37
ag42
ag31
ag52
ag19
ag15
ag46
ag12
ag32
ag22
ag33
ag6
asS'DB00733'
p586
(lp587
g30
ag64
ag12
ag22
ag9
asS'DB00220'
p588
(lp589
g69
ag117
ag70
ag46
ag16
ag22
ag6
asS'DB00222'
p590
(lp591
g45
ag47
ag33
ag16
ag12
ag6
ag9
asS'DB00225'
p592
(lp593
g40
ag42
ag12
ag32
ag9
asS'DB00736'
p594
(lp595
g70
ag31
ag44
ag52
ag46
ag98
ag33
ag47
ag45
ag32
ag16
ag12
ag27
ag19
ag22
ag6
ag9
asS'DB00227'
p596
(lp597
g69
ag44
ag15
ag45
ag33
ag46
ag75
ag27
ag16
ag6
ag22
ag9
asS'DB00734'
p598
(lp599
g37
ag39
ag38
ag41
ag57
ag19
ag70
ag47
ag46
ag9
ag6
ag22
ag32
ag16
ag12
asS'DB01597'
p600
(lp601
g45
ag47
ag33
ag16
ag9
asS'DB01590'
p602
(lp603
g75
ag42
ag117
ag98
ag27
ag52
ag19
ag64
ag46
ag12
ag16
ag32
ag22
ag6
asS'DB01591'
p604
(lp605
g37
ag30
ag32
ag9
asS'DB01592'
p606
(lp607
g45
ag42
ag117
ag22
ag32
ag12
ag6
asS'DB01593'
p608
(lp609
g22
ag32
asS'DB01598'
p610
(lp611
g45
ag47
ag33
ag16
ag9
asS'DB06817'
p612
(lp613
g69
ag33
ag16
ag6
asS'DB00359'
p614
(lp615
g27
ag44
ag45
ag47
ag15
ag33
ag46
ag16
asS'DB00358'
p616
(lp617
g41
ag70
ag15
ag33
ag32
ag16
ag47
ag6
ag9
asS'DB00428'
p618
(lp619
g98
ag6
asS'DB00427'
p620
(lp621
g57
ag45
ag47
ag32
ag16
asS'DB00426'
p622
(lp623
g30
ag33
ag16
asS'DB00425'
p624
(lp625
g117
ag57
ag43
ag41
ag70
ag19
ag52
ag15
ag12
ag32
ag6
ag9
asS'DB00424'
p626
(lp627
g36
ag30
ag31
ag32
ag33
ag9
asS'DB00423'
p628
(lp629
g40
ag9
asS'DB00422'
p630
(lp631
g38
ag41
ag64
ag32
ag16
ag40
ag12
ag36
ag70
ag22
ag9
ag6
asS'DB00421'
p632
(lp633
g52
ag47
ag45
ag46
ag9
ag16
ag33
ag22
asS'DB00646'
p634
(lp635
g33
asS'DB00645'
p636
(lp637
g22
asS'DB06219'
p638
(lp639
g16
ag9
asS'DB00643'
p640
(lp641
g47
ag33
ag9
asS'DB00642'
p642
(lp643
g75
ag43
ag45
ag27
ag15
ag46
ag33
ag16
ag32
ag6
asS'DB00641'
p644
(lp645
g69
ag75
ag44
ag15
ag33
ag45
ag46
ag27
ag16
ag9
ag6
ag22
ag12
asS'DB00640'
p646
(lp647
g40
ag64
ag43
ag12
ag22
ag32
ag9
asS'DB06212'
p648
(lp649
g42
asS'DB06213'
p650
(lp651
g43
ag64
ag12
ag22
ag32
ag9
asS'DB06211'
p652
(lp653
g75
ag19
ag33
ag16
ag9
asS'DB06216'
p654
(lp655
g39
ag38
ag37
ag41
ag19
ag30
ag47
ag32
ag16
ag9
asS'DB00649'
p656
(lp657
g15
ag46
ag16
asS'DB06215'
p658
(lp659
g64
ag6
ag9
asS'DB11921'
p660
(lp661
g69
ag70
ag27
ag12
ag32
ag6
ag9
asS'DB06589'
p662
(lp663
g37
ag75
ag98
ag46
ag12
ag22
ag16
ag32
asS'DB06366'
p664
(lp665
g15
ag12
ag16
ag32
ag9
asS'DB00974'
p666
(lp667
g98
ag22
asS'DB10501'
p668
(lp669
g9
asS'DB10500'
p670
(lp671
g9
asS'DB10503'
p672
(lp673
g9
asS'DB10502'
p674
(lp675
g9
asS'DB10505'
p676
(lp677
g9
asS'DB10504'
p678
(lp679
g9
asS'DB10506'
p680
(lp681
g9
asS'DB10509'
p682
(lp683
g9
asS'DB10508'
p684
(lp685
g9
asS'DB11095'
p686
(lp687
g22
ag32
ag6
ag9
asS'DB14552'
p688
(lp689
g22
ag32
asS'DB09296'
p690
(lp691
g70
ag33
ag22
ag32
ag6
asS'DB09142'
p692
(lp693
g32
asS'DB10646'
p694
(lp695
g9
asS'DB10647'
p696
(lp697
g9
asS'DB10644'
p698
(lp699
g9
asS'DB10642'
p700
(lp701
g9
asS'DB10643'
p702
(lp703
g9
asS'DB10640'
p704
(lp705
g9
asS'DB10641'
p706
(lp707
g9
asS'DB14082'
p708
(lp709
g32
asS'DB10648'
p710
(lp711
g9
asS'DB10552'
p712
(lp713
g9
asS'DB10550'
p714
(lp715
g9
asS'DB10551'
p716
(lp717
g9
asS'DB10554'
p718
(lp719
g9
asS'DB01155'
p720
(lp721
g44
ag33
ag47
ag16
ag9
ag6
ag22
ag15
asS'DB06282'
p722
(lp723
g6
ag9
asS'DB09397'
p724
(lp725
g9
asS'DB10909'
p726
(lp727
g9
asS'DB11595'
p728
(lp729
g75
ag27
ag64
ag19
ag46
ag12
ag6
asS'DB11596'
p730
(lp731
g15
ag16
asS'DB10907'
p732
(lp733
g9
asS'DB12001'
p734
(lp735
g263
ag42
ag27
ag16
asS'DB10901'
p736
(lp737
g9
asS'DB01296'
p738
(lp739
g22
asS'DB01294'
p740
(lp741
g22
asS'DB09113'
p742
(lp743
g27
ag19
asS'DB01345'
p744
(lp745
g40
ag64
ag70
ag52
ag117
ag9
ag27
ag45
ag22
ag32
ag6
ag12
ag16
asS'DB10359'
p746
(lp747
g9
ag6
asS'DB10350'
p748
(lp749
g6
ag9
asS'DB12483'
p750
(lp751
g19
ag16
ag32
asS'DB10352'
p752
(lp753
g9
ag6
asS'DB12481'
p754
(lp755
g32
asS'DB10354'
p756
(lp757
g6
ag9
asS'DB10356'
p758
(lp759
g9
asS'DB10357'
p760
(lp761
g9
ag6
asS'DB12267'
p762
(lp763
g75
ag15
ag19
ag32
ag6
asS'DB00999'
p764
(lp765
g117
ag41
ag33
ag45
ag15
ag43
ag70
ag19
ag46
ag52
ag47
ag44
ag64
ag16
ag263
ag69
ag40
ag6
ag12
ag98
ag9
ag31
ag32
ag22
asS'DB00500'
p766
(lp767
g98
ag44
ag45
ag47
ag33
ag12
ag16
ag32
ag22
ag6
asS'DB00501'
p768
(lp769
g33
ag46
ag47
ag16
ag9
ag19
asS'DB00502'
p770
(lp771
g39
ag37
ag40
ag38
ag19
ag47
ag32
asS'DB00503'
p772
(lp773
g263
ag37
ag42
ag31
ag69
ag52
ag19
ag15
ag70
ag46
ag12
ag32
ag22
ag33
ag6
ag9
asS'DB00728'
p774
(lp775
g69
ag32
ag9
asS'DB13195'
p776
(lp777
g22
asS'DB01638'
p778
(lp779
g6
asS'DB00722'
p780
(lp781
g43
ag19
ag44
ag64
ag33
ag45
ag15
ag46
ag52
ag16
ag12
ag6
ag9
asS'DB00724'
p782
(lp783
g98
ag41
ag52
ag12
ag22
ag6
asS'DB00726'
p784
(lp785
g36
ag41
ag30
ag15
ag47
ag12
ag16
ag32
ag6
asS'DB00727'
p786
(lp787
g22
ag52
asS'DB01124'
p788
(lp789
g45
ag47
ag16
asS'DB00348'
p790
(lp791
g27
ag16
asS'DB01126'
p792
(lp793
g33
asS'DB00438'
p794
(lp795
g45
ag47
ag33
ag16
ag9
asS'DB06826'
p796
(lp797
g32
asS'DB00434'
p798
(lp799
g64
ag45
ag47
ag32
ag16
ag6
asS'DB00435'
p800
(lp801
g263
ag64
ag52
ag22
asS'DB00436'
p802
(lp803
g70
ag45
ag46
ag47
ag16
ag9
asS'DB00341'
p804
(lp805
g41
ag9
ag70
ag19
ag45
ag32
ag16
asS'DB01129'
p806
(lp807
g75
ag30
ag31
ag45
ag33
ag47
ag16
ag22
ag9
asS'DB00347'
p808
(lp809
g40
ag41
ag47
ag22
ag16
asS'DB00432'
p810
(lp811
g75
ag6
ag16
asS'DB00433'
p812
(lp813
g39
ag40
ag38
ag19
ag64
ag45
ag47
asS'DB06779'
p814
(lp815
g32
ag16
ag22
asS'DB00655'
p816
(lp817
g42
ag12
ag32
ag22
ag46
ag6
ag9
asS'DB00656'
p818
(lp819
g39
ag37
ag40
ag41
ag43
ag64
ag45
ag36
ag38
ag32
ag12
ag30
ag6
ag70
ag22
asS'DB00657'
p820
(lp821
g75
ag52
ag32
ag22
asS'DB00650'
p822
(lp823
g16
asS'DB00652'
p824
(lp825
g40
ag45
ag33
ag36
ag30
ag47
ag12
ag6
ag46
ag32
ag9
asS'DB06770'
p826
(lp827
g6
asS'DB06772'
p828
(lp829
g75
ag64
ag27
ag15
ag22
ag16
ag9
asS'DB06775'
p830
(lp831
g19
asS'DB06774'
p832
(lp833
g98
ag44
ag27
ag19
ag45
ag47
ag33
ag46
ag12
ag32
ag22
ag16
ag6
ag9
asS'DB00237'
p834
(lp835
g30
ag70
ag9
asS'DB00235'
p836
(lp837
g43
ag12
ag6
ag22
asS'DB00232'
p838
(lp839
g52
ag45
ag46
ag47
ag33
ag16
ag9
asS'DB00233'
p840
(lp841
g45
ag47
ag16
asS'DB09422'
p842
(lp843
g117
ag27
ag19
ag16
ag32
ag6
ag9
asS'DB00231'
p844
(lp845
g70
ag9
asS'DB03852'
p846
(lp847
g12
ag22
asS'DB00238'
p848
(lp849
g44
ag33
ag16
ag6
ag9
asS'DB06822'
p850
(lp851
g19
ag33
ag47
ag32
ag12
ag16
ag22
asS'DB06176'
p852
(lp853
g37
ag42
ag27
ag19
ag16
ag6
asS'DB00557'
p854
(lp855
g37
ag12
asS'DB10424'
p856
(lp857
g6
ag9
asS'DB10425'
p858
(lp859
g6
ag9
asS'DB10429'
p860
(lp861
g6
ag9
asS'DB00555'
p862
(lp863
g42
ag40
ag30
ag41
ag70
ag27
ag31
ag15
ag45
ag33
ag46
ag47
ag12
ag32
ag16
ag22
ag6
asS'DB11916'
p864
(lp865
g32
asS'DB00006'
p866
(lp867
g27
ag52
ag22
ag32
ag9
asS'DB04953'
p868
(lp869
g41
ag16
asS'DB04951'
p870
(lp871
g47
asS'DB00003'
p872
(lp873
g64
ag19
ag9
asS'DB00002'
p874
(lp875
g75
ag27
ag64
ag15
ag33
ag12
ag32
ag9
asS'DB00776'
p876
(lp877
g75
ag98
ag30
ag41
ag31
ag19
ag52
ag46
ag47
ag33
ag16
ag32
ag6
ag9
asS'DB00775'
p878
(lp879
g22
ag16
ag6
ag9
asS'DB00774'
p880
(lp881
g46
ag47
ag16
asS'DB00957'
p882
(lp883
g42
ag117
ag12
ag46
ag32
ag22
ag6
ag9
asS'DB10518'
p884
(lp885
g9
asS'DB10519'
p886
(lp887
g9
ag6
asS'DB10516'
p888
(lp889
g9
asS'DB10517'
p890
(lp891
g9
asS'DB10514'
p892
(lp893
g9
asS'DB10515'
p894
(lp895
g9
asS'DB10512'
p896
(lp897
g9
asS'DB10513'
p898
(lp899
g9
asS'DB10510'
p900
(lp901
g9
asS'DB10511'
p902
(lp903
g9
asS'DB14524'
p904
(lp905
g75
ag6
asS'DB00896'
p906
(lp907
g6
asS'DB00897'
p908
(lp909
g57
ag70
ag9
asS'DB10631'
p910
(lp911
g9
asS'DB10637'
p912
(lp913
g9
asS'DB10636'
p914
(lp915
g9
asS'DB10635'
p916
(lp917
g9
asS'DB10639'
p918
(lp919
g9
asS'DB08881'
p920
(lp921
g37
ag15
ag46
ag33
ag9
asS'DB08880'
p922
(lp923
g75
ag27
ag15
ag47
ag46
ag33
ag16
ag32
ag9
asS'DB08883'
p924
(lp925
g41
ag30
asS'DB08882'
p926
(lp927
g117
ag27
ag9
asS'DB08889'
p928
(lp929
g75
ag42
ag30
ag52
ag27
ag64
ag15
ag19
ag12
ag22
ag16
ag32
ag6
asS'DB10749'
p930
(lp931
g9
asS'DB02659'
p932
(lp933
g15
asS'DB10747'
p934
(lp935
g9
asS'DB10746'
p936
(lp937
g9
asS'DB10745'
p938
(lp939
g9
asS'DB10744'
p940
(lp941
g9
asS'DB10743'
p942
(lp943
g9
asS'DB10742'
p944
(lp945
g9
asS'DB10741'
p946
(lp947
g9
asS'DB10740'
p948
(lp949
g9
asS'DB01744'
p950
(lp951
g6
ag12
ag31
ag36
ag22
ag41
ag70
ag43
ag64
ag45
ag46
ag16
ag32
ag9
asS'DB11346'
p952
(lp953
g12
asS'DB11581'
p954
(lp955
g19
ag16
asS'DB01280'
p956
(lp957
g40
ag15
ag19
ag16
ag6
asS'DB01281'
p958
(lp959
g27
ag19
ag32
ag9
asS'DB09123'
p960
(lp961
g42
ag12
ag32
ag22
asS'DB10365'
p962
(lp963
g9
ag6
asS'DB10364'
p964
(lp965
g6
ag9
asS'DB10366'
p966
(lp967
g9
ag6
asS'DB10361'
p968
(lp969
g6
ag9
asS'DB10360'
p970
(lp971
g9
ag6
asS'DB10363'
p972
(lp973
g9
asS'DB10362'
p974
(lp975
g9
asS'DB01351'
p976
(lp977
g30
asS'DB01356'
p978
(lp979
g38
ag36
ag98
ag30
asS'DB00252'
p980
(lp981
g30
ag41
ag263
ag37
ag40
ag33
ag47
ag69
ag43
ag16
ag27
ag64
ag19
ag22
ag32
ag6
ag9
asS'DB00254'
p982
(lp983
g45
ag16
ag9
ag32
asS'DB00257'
p984
(lp985
g6
asS'DB09407'
p986
(lp987
g52
ag6
ag22
asS'DB00539'
p988
(lp989
g43
ag12
ag16
ag6
asS'DB00535'
p990
(lp991
g45
ag33
ag47
ag12
ag32
ag16
ag22
ag9
asS'DB00537'
p992
(lp993
g37
ag40
ag30
ag44
ag15
ag64
ag52
ag33
ag45
ag46
ag47
ag41
ag12
ag32
ag16
ag9
ag6
ag22
asS'DB00536'
p994
(lp995
g16
asS'DB00531'
p996
(lp997
g75
ag16
ag9
ag22
ag33
asS'DB00530'
p998
(lp999
g75
ag42
ag69
ag15
ag45
ag46
ag12
ag16
ag33
ag22
ag6
asS'DB11166'
p1000
(lp1001
g22
ag9
asS'DB13180'
p1002
(lp1003
g40
ag64
ag52
ag45
ag32
ag22
ag6
asS'DB00087'
p1004
(lp1005
g98
ag64
ag45
ag27
ag12
ag19
ag16
ag32
ag22
ag9
asS'DB00080'
p1006
(lp1007
g69
ag98
ag27
ag64
ag15
ag33
ag16
ag32
ag6
ag9
asS'DB00083'
p1008
(lp1009
g15
ag19
ag12
ag22
ag32
ag6
ag9
asS'DB00082'
p1010
(lp1011
g32
ag6
ag9
asS'DB01627'
p1012
(lp1013
g98
ag47
ag33
ag9
asS'DB00089'
p1014
(lp1015
g32
ag9
asS'DB01623'
p1016
(lp1017
g39
ag38
ag64
ag19
ag45
ag47
ag16
ag9
asS'DB01620'
p1018
(lp1019
g70
asS'DB01268'
p1020
(lp1021
g37
ag69
ag42
ag98
ag27
ag64
ag46
ag33
ag12
ag22
ag16
ag32
ag6
asS'DB01132'
p1022
(lp1023
g27
ag12
ag32
ag45
ag47
ag46
ag6
ag33
ag16
ag9
asS'DB00408'
p1024
(lp1025
g39
ag38
ag19
ag47
ag16
ag32
ag6
asS'DB01130'
p1026
(lp1027
g6
asS'DB01131'
p1028
(lp1029
g52
ag33
ag9
asS'DB01136'
p1030
(lp1031
g75
ag70
ag52
ag33
ag16
ag22
ag6
ag9
asS'DB01137'
p1032
(lp1033
g204
ag43
ag37
ag70
ag44
ag64
ag15
ag45
ag41
ag46
ag33
ag47
ag16
ag6
ag9
asS'DB00401'
p1034
(lp1035
g12
ag6
asS'DB00400'
p1036
(lp1037
g98
ag15
ag33
ag22
asS'DB00402'
p1038
(lp1039
g69
ag117
ag31
ag41
ag70
ag15
ag32
ag9
asS'DB00404'
p1040
(lp1041
g204
ag70
ag41
ag33
ag6
ag57
asS'DB04896'
p1042
(lp1043
g36
ag40
ag38
ag30
ag41
ag33
ag32
ag16
ag22
asS'DB00660'
p1044
(lp1045
g36
ag45
ag44
ag33
ag12
ag22
ag32
ag6
asS'DB04895'
p1046
(lp1047
g32
ag9
asS'DB00665'
p1048
(lp1049
g75
ag19
ag32
asS'DB00888'
p1050
(lp1051
g45
ag47
ag16
ag22
ag9
asS'DB00666'
p1052
(lp1053
g42
ag12
ag22
asS'DB00669'
p1054
(lp1055
g36
ag41
ag43
ag70
ag64
ag45
ag46
ag31
ag27
ag44
ag12
ag32
ag16
ag19
ag9
ag6
ag22
ag33
asS'DB00668'
p1056
(lp1057
g43
ag64
ag15
ag27
ag32
ag6
ag22
ag52
ag12
ag9
asS'DB00887'
p1058
(lp1059
g33
ag16
asS'DB00881'
p1060
(lp1061
g69
ag44
ag45
ag19
ag46
ag52
ag12
ag33
ag16
ag6
asS'DB00880'
p1062
(lp1063
g52
ag45
ag33
ag46
ag47
ag16
ag9
asS'DB00883'
p1064
(lp1065
g117
ag43
ag15
ag47
ag12
ag32
asS'DB10985'
p1066
(lp1067
g9
asS'DB00390'
p1068
(lp1069
g30
ag43
ag64
ag41
ag16
ag22
ag52
ag9
asS'DB00393'
p1070
(lp1071
g42
ag64
ag32
ag16
ag6
asS'DB10986'
p1072
(lp1073
g9
asS'DB00395'
p1074
(lp1075
g57
ag30
ag36
ag31
ag22
ag32
ag6
ag9
asS'DB00396'
p1076
(lp1077
g42
ag70
ag44
ag6
ag12
ag22
ag32
ag9
asS'DB00398'
p1078
(lp1079
g75
ag37
ag98
ag15
ag46
ag33
ag12
ag16
ag22
ag32
ag9
asS'DB10988'
p1080
(lp1081
g9
asS'DB10353'
p1082
(lp1083
g9
asS'DB00243'
p1084
(lp1085
g16
asS'DB00714'
p1086
(lp1087
g38
ag30
ag70
ag64
ag19
ag12
ag6
asS'DB00241'
p1088
(lp1089
g15
ag45
ag31
ag57
ag47
ag36
ag6
ag22
ag16
ag33
ag9
asS'DB00246'
p1090
(lp1091
g263
ag36
ag39
ag42
ag38
ag117
ag69
ag30
ag19
ag15
ag41
ag47
ag32
ag16
ag33
asS'DB00713'
p1092
(lp1093
g98
ag47
ag9
asS'DB00712'
p1094
(lp1095
g98
ag19
ag44
ag27
ag45
ag33
ag46
ag31
ag47
ag32
ag12
ag16
ag6
ag9
ag22
asS'DB00248'
p1096
(lp1097
g31
ag32
ag6
asS'DB06168'
p1098
(lp1099
g27
ag19
asS'DB04946'
p1100
(lp1101
g39
ag57
ag38
ag30
ag19
ag47
ag6
ag9
asS'DB06769'
p1102
(lp1103
g27
ag19
ag33
ag12
ag22
ag16
ag32
ag9
asS'DB10569'
p1104
(lp1105
g9
asS'DB00864'
p1106
(lp1107
g263
ag75
ag42
ag117
ag27
ag37
ag30
ag31
ag19
ag44
ag64
ag52
ag15
ag46
ag33
ag32
ag12
ag16
ag22
ag6
asS'DB00863'
p1108
(lp1109
g46
ag47
ag16
ag19
ag9
ag31
ag44
ag64
ag33
ag12
ag22
ag32
ag6
asS'DB00862'
p1110
(lp1111
g37
ag117
ag70
ag12
ag32
ag22
ag9
asS'DB00861'
p1112
(lp1113
g98
ag44
ag45
ag47
ag33
ag12
ag16
ag32
ag22
ag6
ag9
asS'DB00860'
p1114
(lp1115
g69
ag27
ag46
ag32
ag6
ag44
ag22
ag64
ag52
ag15
ag33
ag47
ag12
ag9
asS'DB10562'
p1116
(lp1117
g9
asS'DB10561'
p1118
(lp1119
g9
asS'DB10560'
p1120
(lp1121
g9
asS'DB10567'
p1122
(lp1123
g9
asS'DB10566'
p1124
(lp1125
g9
asS'DB00869'
p1126
(lp1127
g44
ag52
ag64
ag33
ag47
ag12
ag32
ag6
ag9
asS'DB00868'
p1128
(lp1129
g64
asS'DB14531'
p1130
(lp1131
g27
ag64
ag22
ag6
asS'DB14532'
p1132
(lp1133
g12
ag22
ag46
asS'DB10620'
p1134
(lp1135
g9
asS'DB10623'
p1136
(lp1137
g9
asS'DB10625'
p1138
(lp1139
g9
asS'DB10626'
p1140
(lp1141
g9
asS'DB10628'
p1142
(lp1143
g9
asS'DB10629'
p1144
(lp1145
g9
asS'DB09389'
p1146
(lp1147
g42
ag117
ag12
ag32
ag22
ag46
ag6
asS'DB08893'
p1148
(lp1149
g33
ag32
asS'DB01193'
p1150
(lp1151
g47
ag12
ag6
asS'DB08896'
p1152
(lp1153
g98
ag12
ag22
ag16
ag32
ag6
asS'DB08897'
p1154
(lp1155
g9
asS'DB08895'
p1156
(lp1157
g75
ag117
ag27
ag19
ag32
asS'DB08898'
p1158
(lp1159
g32
ag9
asS'DB08899'
p1160
(lp1161
g27
ag19
ag32
asS'DB10759'
p1162
(lp1163
g9
asS'DB10755'
p1164
(lp1165
g9
asS'DB10756'
p1166
(lp1167
g9
asS'DB10757'
p1168
(lp1169
g9
asS'DB10750'
p1170
(lp1171
g9
ag6
asS'DB10751'
p1172
(lp1173
g9
asS'DB10752'
p1174
(lp1175
g9
asS'DB10753'
p1176
(lp1177
g9
asS'DB11579'
p1178
(lp1179
g22
asS'DB11572'
p1180
(lp1181
g9
asS'DB09133'
p1182
(lp1183
g64
ag52
ag33
ag12
ag32
ag6
ag9
asS'DB09130'
p1184
(lp1185
g27
ag22
ag32
asS'DB09136'
p1186
(lp1187
g9
asS'DB09134'
p1188
(lp1189
g263
ag43
ag52
ag64
ag33
ag12
ag22
ag32
ag9
asS'DB09135'
p1190
(lp1191
g64
ag33
ag12
ag22
ag32
ag6
asS'DB10372'
p1192
(lp1193
g9
ag6
asS'DB10373'
p1194
(lp1195
g6
ag9
asS'DB10370'
p1196
(lp1197
g9
ag6
asS'DB10371'
p1198
(lp1199
g9
asS'DB10376'
p1200
(lp1201
g6
ag9
asS'DB10377'
p1202
(lp1203
g9
ag6
asS'DB10374'
p1204
(lp1205
g9
asS'DB10375'
p1206
(lp1207
g6
ag9
asS'DB10378'
p1208
(lp1209
g9
asS'DB10379'
p1210
(lp1211
g6
ag9
asS'DB10923'
p1212
(lp1213
g9
asS'DB01438'
p1214
(lp1215
g15
ag47
ag46
ag45
asS'DB01432'
p1216
(lp1217
g46
ag22
ag6
asS'DB10927'
p1218
(lp1219
g6
ag9
asS'DB00484'
p1220
(lp1221
g64
ag52
ag44
ag32
ag47
ag33
ag6
ag9
asS'DB00529'
p1222
(lp1223
g40
ag19
ag69
ag27
ag64
ag15
ag33
ag46
ag32
ag16
ag6
ag98
asS'DB11150'
p1224
(lp1225
g31
ag27
ag32
ag22
asS'DB00523'
p1226
(lp1227
g6
asS'DB00520'
p1228
(lp1229
g44
ag52
ag27
ag64
ag19
ag46
ag33
ag12
ag16
ag32
ag6
ag9
asS'DB00521'
p1230
(lp1231
g9
asS'DB00526'
p1232
(lp1233
g37
ag75
ag41
ag27
ag19
ag15
ag45
ag46
ag33
ag32
ag16
ag22
ag6
ag9
asS'DB00524'
p1234
(lp1235
g15
ag47
ag16
ag46
ag9
asS'DB00489'
p1236
(lp1237
g43
ag117
ag64
ag70
ag15
ag52
ag37
ag32
ag16
ag12
ag6
ag9
ag22
asS'DB00721'
p1238
(lp1239
g64
ag27
ag32
ag6
asS'DB10929'
p1240
(lp1241
g9
ag6
asS'DB00090'
p1242
(lp1243
g57
ag19
ag16
ag9
asS'DB00334'
p1244
(lp1245
g39
ag42
ag38
ag36
ag37
ag19
ag52
ag117
ag98
ag30
ag41
ag70
ag46
ag47
ag32
ag16
ag12
ag6
ag22
asS'DB00099'
p1246
(lp1247
g27
ag47
ag98
ag16
ag22
ag6
ag32
ag9
asS'DB01656'
p1248
(lp1249
g41
asS'DB13883'
p1250
(lp1251
g9
asS'DB04711'
p1252
(lp1253
g64
asS'DB00415'
p1254
(lp1255
g47
ag16
ag45
ag33
ag22
ag6
ag9
asS'DB00412'
p1256
(lp1257
g52
ag64
ag33
ag27
ag12
ag32
ag15
ag6
ag9
asS'DB00413'
p1258
(lp1259
g263
ag57
ag42
ag40
ag98
ag38
ag69
ag117
ag30
ag31
ag27
ag41
ag70
ag52
ag64
ag19
ag15
ag46
ag12
ag32
ag16
ag6
asS'DB00410'
p1260
(lp1261
g22
ag9
asS'DB00418'
p1262
(lp1263
g30
ag70
ag9
asS'DB00419'
p1264
(lp1265
g15
ag16
ag22
asS'DB04398'
p1266
(lp1267
g64
ag52
ag27
ag46
ag33
ag32
ag22
ag16
ag6
ag9
asS'DB00899'
p1268
(lp1269
g263
ag36
ag70
ag52
ag64
ag19
ag22
ag16
ag32
ag6
ag9
asS'DB00210'
p1270
(lp1271
g6
ag9
asS'DB00678'
p1272
(lp1273
g43
ag70
ag52
ag15
ag45
ag46
ag47
ag33
ag12
ag16
ag32
ag6
ag9
asS'DB04572'
p1274
(lp1275
g75
ag30
ag27
ag33
ag16
ag22
ag9
asS'DB00893'
p1276
(lp1277
g22
asS'DB00674'
p1278
(lp1279
g30
ag41
ag43
ag12
ag32
ag16
ag22
ag33
asS'DB00675'
p1280
(lp1281
g75
ag42
ag117
ag44
ag27
ag33
ag46
ag16
ag6
ag22
ag12
ag32
asS'DB00672'
p1282
(lp1283
g45
ag47
ag16
asS'DB00673'
p1284
(lp1285
g42
ag98
ag15
ag33
ag12
ag32
ag16
ag6
ag9
asS'DB00671'
p1286
(lp1287
g45
ag47
ag33
ag16
ag22
ag6
asS'DB00388'
p1288
(lp1289
g70
ag31
ag12
ag57
ag22
ag38
ag30
ag19
ag52
ag47
ag16
ag32
ag6
asS'DB00384'
p1290
(lp1291
g45
ag46
ag47
ag52
ag16
ag9
ag33
asS'DB00385'
p1292
(lp1293
g19
asS'DB00380'
p1294
(lp1295
g27
ag19
ag16
ag22
asS'DB00381'
p1296
(lp1297
g43
ag15
ag69
ag46
ag12
ag16
ag117
ag44
ag6
ag98
ag33
ag75
ag45
ag52
ag47
ag22
ag64
ag9
asS'DB00250'
p1298
(lp1299
g98
ag15
ag46
ag47
ag45
asS'DB00703'
p1300
(lp1301
g44
ag45
ag47
ag33
ag9
asS'DB00700'
p1302
(lp1303
g98
asS'DB00701'
p1304
(lp1305
g45
ag33
ag12
ag22
asS'DB00706'
p1306
(lp1307
g33
asS'DB00704'
p1308
(lp1309
g41
ag36
ag70
ag30
ag19
ag33
ag12
ag46
ag6
ag32
ag9
asS'DB00705'
p1310
(lp1311
g98
ag19
ag15
ag45
ag46
ag33
ag16
ag32
asS'DB00258'
p1312
(lp1313
g30
asS'DB00259'
p1314
(lp1315
g47
asS'DB00708'
p1316
(lp1317
g64
ag36
ag32
ag9
ag22
asS'DB00709'
p1318
(lp1319
g117
ag69
ag27
ag70
ag15
ag19
ag46
ag33
ag12
ag32
ag16
ag6
ag9
asS'DB00047'
p1320
(lp1321
g15
ag32
ag12
ag6
ag22
ag9
asS'DB09401'
p1322
(lp1323
g43
ag31
ag19
ag32
ag12
ag16
ag22
ag6
asS'DB06626'
p1324
(lp1325
g42
ag98
ag12
ag22
ag32
asS'DB06151'
p1326
(lp1327
g6
ag9
asS'DB13152'
p1328
(lp1329
g9
asS'DB13151'
p1330
(lp1331
g42
ag12
ag32
ag9
asS'DB06713'
p1332
(lp1333
g42
ag12
ag22
ag32
asS'DB06711'
p1334
(lp1335
g32
asS'DB06710'
p1336
(lp1337
g42
ag12
ag32
ag46
ag22
ag6
ag9
asS'DB00012'
p1338
(lp1339
g42
ag12
ag22
ag32
ag6
ag9
asS'DB01357'
p1340
(lp1341
g42
ag117
ag12
ag32
ag22
ag6
asS'DB03017'
p1342
(lp1343
g32
ag22
asS'DB10578'
p1344
(lp1345
g9
asS'DB10579'
p1346
(lp1347
g9
asS'DB00876'
p1348
(lp1349
g52
ag45
ag46
ag47
ag33
ag16
ag6
ag9
asS'DB00877'
p1350
(lp1351
g75
ag42
ag98
ag117
ag27
ag44
ag19
ag46
ag32
ag16
ag6
asS'DB00871'
p1352
(lp1353
g52
ag12
ag32
asS'DB00872'
p1354
(lp1355
g27
ag19
ag32
asS'DB10570'
p1356
(lp1357
g9
asS'DB10571'
p1358
(lp1359
g9
asS'DB10572'
p1360
(lp1361
g9
asS'DB10573'
p1362
(lp1363
g9
asS'DB00878'
p1364
(lp1365
g9
ag32
asS'DB00879'
p1366
(lp1367
g69
ag98
ag19
ag15
ag41
ag46
ag70
ag33
ag6
asS'DB10576'
p1368
(lp1369
g9
asS'DB00349'
p1370
(lp1371
g41
ag30
ag19
ag33
asS'DB06825'
p1372
(lp1373
g42
ag15
ag12
ag32
ag6
ag22
asS'DB14509'
p1374
(lp1375
g38
asS'DB10618'
p1376
(lp1377
g9
asS'DB06441'
p1378
(lp1379
g22
ag9
asS'DB00343'
p1380
(lp1381
g64
ag45
ag33
ag69
ag16
ag12
ag43
ag6
ag31
ag15
asS'DB10617'
p1382
(lp1383
g9
asS'DB10610'
p1384
(lp1385
g9
asS'DB10612'
p1386
(lp1387
g9
asS'DB00437'
p1388
(lp1389
g117
ag69
ag263
ag44
ag15
ag45
ag33
ag47
ag32
ag16
ag6
ag27
ag12
ag22
asS'DB00346'
p1390
(lp1391
g16
ag6
asS'DB11714'
p1392
(lp1393
g75
ag27
ag45
ag6
asS'DB00344'
p1394
(lp1395
g41
ag15
ag47
ag12
ag16
ag32
ag6
asS'DB00654'
p1396
(lp1397
g6
asS'DB09394'
p1398
(lp1399
g27
ag52
ag45
ag6
asS'DB09395'
p1400
(lp1401
g52
ag6
ag22
asS'DB05381'
p1402
(lp1403
g57
ag32
ag9
asS'DB05382'
p1404
(lp1405
g31
ag22
ag69
ag43
ag98
ag44
ag27
ag64
ag19
ag52
ag15
ag46
ag45
ag32
ag47
ag12
ag33
ag16
ag6
ag9
asS'DB08869'
p1406
(lp1407
g15
ag32
ag22
ag6
asS'DB08868'
p1408
(lp1409
g64
ag19
ag32
asS'DB08865'
p1410
(lp1411
g37
ag75
ag43
ag27
ag15
ag19
ag6
asS'DB08864'
p1412
(lp1413
g69
ag98
ag70
ag19
ag15
ag46
ag6
asS'DB05541'
p1414
(lp1415
g41
asS'DB08860'
p1416
(lp1417
g75
ag27
ag15
asS'DB10768'
p1418
(lp1419
g9
ag6
asS'DB10760'
p1420
(lp1421
g9
asS'DB10763'
p1422
(lp1423
g9
ag6
asS'DB10762'
p1424
(lp1425
g9
ag6
asS'DB10765'
p1426
(lp1427
g9
asS'DB10764'
p1428
(lp1429
g9
ag6
asS'DB10767'
p1430
(lp1431
g9
asS'DB10766'
p1432
(lp1433
g9
asS'DB00320'
p1434
(lp1435
g43
ag12
ag32
ag22
ag6
asS'DB00659'
p1436
(lp1437
g42
ag69
ag31
ag41
ag19
ag46
ag12
ag16
ag22
ag32
asS'DB11363'
p1438
(lp1439
g75
ag22
ag32
ag6
asS'DB09241'
p1440
(lp1441
g36
ag31
ag30
ag45
ag32
ag6
ag9
asS'DB13700'
p1442
(lp1443
g52
ag22
ag9
asS'DB00078'
p1444
(lp1445
g27
ag19
ag33
ag12
ag22
ag16
ag32
asS'DB08916'
p1446
(lp1447
g75
ag19
ag46
ag33
asS'DB08912'
p1448
(lp1449
g45
ag46
ag22
ag6
asS'DB08911'
p1450
(lp1451
g75
ag42
ag22
ag16
ag32
ag6
asS'DB08910'
p1452
(lp1453
g75
ag42
ag117
ag27
ag19
ag15
ag12
ag16
ag32
asS'DB10389'
p1454
(lp1455
g6
ag9
asS'DB10388'
p1456
(lp1457
g9
ag6
asS'DB10387'
p1458
(lp1459
g9
ag6
asS'DB10386'
p1460
(lp1461
g9
ag6
asS'DB10385'
p1462
(lp1463
g9
ag6
ag64
asS'DB10383'
p1464
(lp1465
g6
ag9
asS'DB10382'
p1466
(lp1467
g9
ag6
asS'DB10381'
p1468
(lp1469
g9
ag6
asS'DB10380'
p1470
(lp1471
g6
ag9
asS'DB01428'
p1472
(lp1473
g9
asS'DB01399'
p1474
(lp1475
g44
ag64
ag12
ag22
ag33
ag6
ag32
asS'DB01394'
p1476
(lp1477
g44
ag69
ag15
ag45
ag47
ag16
ag9
asS'DB01395'
p1478
(lp1479
g42
ag263
ag117
ag46
ag12
ag32
ag22
ag6
ag9
asS'DB01390'
p1480
(lp1481
g98
ag44
ag33
ag45
ag46
ag47
ag16
ag6
ag9
ag22
asS'DB06243'
p1482
(lp1483
g22
ag6
asS'DB09096'
p1484
(lp1485
g12
ag45
ag33
ag6
ag16
ag9
asS'DB11148'
p1486
(lp1487
g6
ag9
asS'DB10925'
p1488
(lp1489
g9
asS'DB00207'
p1490
(lp1491
g37
ag43
ag44
ag33
ag46
ag16
ag9
ag6
asS'DB00069'
p1492
(lp1493
g75
ag41
ag19
ag27
ag46
ag32
ag12
ag16
ag9
ag22
asS'DB00068'
p1494
(lp1495
g41
ag46
ag16
ag32
ag9
asS'DB00066'
p1496
(lp1497
g32
ag6
ag9
ag52
ag12
ag22
asS'DB00065'
p1498
(lp1499
g75
ag52
ag27
ag15
ag45
ag19
ag33
ag12
ag22
ag16
ag32
ag6
ag9
asS'DB00063'
p1500
(lp1501
g263
ag16
ag22
asS'DB00060'
p1502
(lp1503
g41
ag33
ag16
ag6
ag9
asS'DB10924'
p1504
(lp1505
g9
asS'DB13896'
p1506
(lp1507
g42
asS'DB13895'
p1508
(lp1509
g9
asS'DB00461'
p1510
(lp1511
g75
ag31
ag44
ag46
ag33
ag12
ag32
ag16
ag22
ag6
ag9
asS'DB00460'
p1512
(lp1513
g204
ag70
ag19
ag32
ag22
ag6
asS'DB00251'
p1514
(lp1515
g9
asS'DB00465'
p1516
(lp1517
g98
ag27
ag44
ag52
ag19
ag45
ag43
ag33
ag47
ag12
ag64
ag32
ag16
ag22
ag6
ag9
asS'DB00468'
p1518
(lp1519
g37
ag43
ag41
ag52
ag64
ag45
ag33
ag47
ag16
ag22
ag6
asS'DB09421'
p1520
(lp1521
g32
asS'DB00609'
p1522
(lp1523
g15
ag16
asS'DB00608'
p1524
(lp1525
g69
ag30
ag33
ag47
ag16
asS'DB00230'
p1526
(lp1527
g42
ag69
ag30
ag41
ag70
ag52
ag15
ag46
ag33
ag16
ag32
ag6
asS'DB04564'
p1528
(lp1529
g27
ag64
ag6
asS'DB00602'
p1530
(lp1531
g33
ag6
asS'DB00601'
p1532
(lp1533
g36
ag27
ag38
ag30
ag15
ag33
ag32
ag16
ag22
ag9
asS'DB00607'
p1534
(lp1535
g98
ag47
ag9
asS'DB00605'
p1536
(lp1537
g98
ag44
ag15
ag45
ag33
ag46
ag47
ag12
ag32
ag16
ag22
ag6
ag9
asS'DB00350'
p1538
(lp1539
g33
ag12
ag16
ag6
asS'DB10968'
p1540
(lp1541
g9
asS'DB10963'
p1542
(lp1543
g9
asS'DB10962'
p1544
(lp1545
g9
asS'DB10961'
p1546
(lp1547
g9
asS'DB09077'
p1548
(lp1549
g98
ag27
ag15
ag22
ag16
ag32
ag6
ag9
asS'DB00268'
p1550
(lp1551
g42
ag75
ag40
ag38
ag98
ag30
ag57
ag43
ag70
ag27
ag31
ag19
ag15
ag64
ag52
ag46
ag12
ag32
ag16
ag6
asS'DB00264'
p1552
(lp1553
g70
ag47
ag43
ag31
ag19
ag12
ag52
ag16
ag64
ag45
ag46
ag33
ag32
ag6
ag9
asS'DB09477'
p1554
(lp1555
g19
ag44
ag64
ag52
ag15
ag33
ag45
ag46
ag12
ag16
asS'DB09075'
p1556
(lp1557
g75
ag19
ag22
asS'DB00263'
p1558
(lp1559
g43
ag44
ag64
ag15
ag45
ag46
ag33
ag47
ag16
ag6
ag9
asS'DB00262'
p1560
(lp1561
g75
ag27
ag22
ag16
asS'DB00117'
p1562
(lp1563
g27
ag31
ag44
ag117
ag52
ag45
ag46
ag47
ag33
ag12
ag16
ag32
ag22
ag6
ag9
asS'DB00115'
p1564
(lp1565
g52
ag22
ag32
ag16
ag6
ag9
asS'DB09074'
p1566
(lp1567
g15
ag16
ag6
asS'DB00112'
p1568
(lp1569
g263
ag42
ag98
ag27
ag19
ag12
ag22
ag16
ag32
ag6
asS'DB00111'
p1570
(lp1571
g75
ag41
ag47
ag19
ag46
ag16
ag9
asS'DB00110'
p1572
(lp1573
g16
ag9
asS'DB09073'
p1574
(lp1575
g15
ag19
ag16
asS'DB06637'
p1576
(lp1577
g9
asS'DB00287'
p1578
(lp1579
g32
asS'DB00285'
p1580
(lp1581
g37
ag36
ag75
ag39
ag57
ag38
ag69
ag117
ag30
ag43
ag41
ag44
ag64
ag19
ag15
ag46
ag33
ag47
ag12
ag32
ag16
ag22
ag6
ag9
asS'DB00284'
p1582
(lp1583
g16
ag6
asS'DB00283'
p1584
(lp1585
g40
ag45
ag47
ag32
ag16
asS'DB00282'
p1586
(lp1587
g75
ag19
ag32
ag16
ag6
ag22
asS'DB00281'
p1588
(lp1589
g31
ag12
ag15
ag27
ag64
ag22
ag32
ag42
ag117
ag69
ag6
ag41
ag43
ag98
ag44
ag70
ag19
ag52
ag46
ag45
ag47
ag33
ag16
ag9
asS'DB00280'
p1590
(lp1591
g64
ag47
ag12
ag16
ag6
asS'DB00289'
p1592
(lp1593
g37
ag41
ag70
ag12
ag32
ag9
asS'DB13146'
p1594
(lp1595
g9
asS'DB13147'
p1596
(lp1597
g9
asS'DB13148'
p1598
(lp1599
g9
asS'DB06700'
p1600
(lp1601
g36
ag75
ag37
ag38
ag98
ag41
ag30
ag33
ag12
ag32
ag22
asS'DB06701'
p1602
(lp1603
g38
ag36
ag12
ag32
ag9
asS'DB06702'
p1604
(lp1605
g37
asS'DB09502'
p1606
(lp1607
g6
asS'DB06706'
p1608
(lp1609
g33
ag32
ag9
asS'DB06707'
p1610
(lp1611
g27
ag32
ag6
asS'DB06708'
p1612
(lp1613
g98
ag70
ag19
ag9
asS'DB10545'
p1614
(lp1615
g9
asS'DB10816'
p1616
(lp1617
g9
asS'DB10815'
p1618
(lp1619
g6
ag9
asS'DB10541'
p1620
(lp1621
g9
asS'DB10540'
p1622
(lp1623
g9
asS'DB10543'
p1624
(lp1625
g9
asS'DB10542'
p1626
(lp1627
g9
asS'DB10549'
p1628
(lp1629
g9
asS'DB10548'
p1630
(lp1631
g9
asS'DB00841'
p1632
(lp1633
g43
ag52
ag12
ag16
asS'DB00843'
p1634
(lp1635
g263
ag40
ag38
ag42
ag117
ag19
ag57
ag27
ag45
ag46
ag31
ag32
ag16
ag12
ag6
ag22
ag47
ag33
asS'DB00842'
p1636
(lp1637
g47
ag6
asS'DB00844'
p1638
(lp1639
g36
ag52
ag64
ag32
ag6
ag12
asS'DB00847'
p1640
(lp1641
g22
ag32
ag9
asS'DB10423'
p1642
(lp1643
g6
ag9
asS'DB00806'
p1644
(lp1645
g16
ag6
ag22
ag9
asS'DB14513'
p1646
(lp1647
g22
ag32
asS'DB14511'
p1648
(lp1649
g40
ag117
ag64
ag27
ag52
ag45
ag32
ag16
ag6
ag9
asS'DB14516'
p1650
(lp1651
g22
ag40
ag31
ag70
ag36
ag64
ag52
ag69
ag30
ag117
ag98
ag9
ag44
ag27
ag43
ag19
ag45
ag46
ag47
ag15
ag33
ag6
ag12
ag32
ag16
asS'DB01067'
p1652
(lp1653
g27
ag45
ag47
ag32
ag16
ag6
asS'DB00224'
p1654
(lp1655
g45
ag46
ag33
ag12
ag22
asS'DB00041'
p1656
(lp1657
g40
ag69
ag41
ag30
ag43
ag27
ag64
ag19
ag52
ag15
ag46
ag33
ag12
ag16
ag22
ag32
ag6
ag9
asS'DB00591'
p1658
(lp1659
g19
ag6
ag9
asS'DB00597'
p1660
(lp1661
g64
ag32
ag6
ag9
asS'DB08879'
p1662
(lp1663
g41
ag19
ag6
ag9
asS'DB05889'
p1664
(lp1665
g37
ag27
ag19
ag22
ag16
asS'DB08875'
p1666
(lp1667
g263
ag98
ag64
ag27
ag15
ag19
ag12
ag46
ag22
ag32
ag16
ag6
asS'DB08876'
p1668
(lp1669
g16
ag9
asS'DB08877'
p1670
(lp1671
g117
ag16
ag32
ag6
asS'DB08870'
p1672
(lp1673
g75
ag27
ag15
ag19
ag46
ag33
ag16
ag22
ag9
asS'DB08871'
p1674
(lp1675
g37
ag75
ag27
ag15
ag19
ag46
ag33
ag16
asS'DB08873'
p1676
(lp1677
g42
ag27
ag19
ag47
ag33
ag16
asS'DB11633'
p1678
(lp1679
g98
ag30
ag64
ag15
ag47
ag33
ag9
asS'DB05773'
p1680
(lp1681
g75
ag15
ag22
ag16
ag32
asS'DB02513'
p1682
(lp1683
g12
ag22
asS'DB09278'
p1684
(lp1685
g57
asS'DB08904'
p1686
(lp1687
g27
ag15
ag19
ag33
ag12
ag22
ag16
ag32
ag9
asS'DB08900'
p1688
(lp1689
g70
ag64
ag46
asS'DB08901'
p1690
(lp1691
g42
ag43
ag27
ag52
ag15
ag19
ag46
ag12
ag22
ag16
ag32
ag6
asS'DB08903'
p1692
(lp1693
g37
asS'DB10398'
p1694
(lp1695
g6
ag9
asS'DB10394'
p1696
(lp1697
g9
ag6
asS'DB10395'
p1698
(lp1699
g9
ag6
asS'DB10396'
p1700
(lp1701
g6
ag9
asS'DB10397'
p1702
(lp1703
g6
ag9
asS'DB10390'
p1704
(lp1705
g9
ag6
asS'DB10391'
p1706
(lp1707
g9
asS'DB10392'
p1708
(lp1709
g6
ag9
asS'DB10393'
p1710
(lp1711
g9
asS'DB05311'
p1712
(lp1713
g9
asS'DB13956'
p1714
(lp1715
g42
ag12
ag32
ag22
asS'DB01413'
p1716
(lp1717
g45
ag47
ag33
ag16
ag22
ag9
asS'DB13954'
p1718
(lp1719
g42
ag46
ag12
ag32
ag22
ag6
ag9
asS'DB01415'
p1720
(lp1721
g45
ag33
ag47
ag22
ag9
asS'DB01416'
p1722
(lp1723
g263
ag98
ag45
ag47
ag33
ag16
ag32
ag22
ag6
asS'DB11058'
p1724
(lp1725
g12
ag22
ag39
ag38
ag41
ag19
ag47
ag32
asS'DB01099'
p1726
(lp1727
g44
ag64
ag15
ag47
ag16
asS'DB01098'
p1728
(lp1729
g69
ag98
ag27
ag70
ag75
ag46
ag15
ag16
asS'DB09085'
p1730
(lp1731
g64
ag32
ag6
ag9
asS'DB01095'
p1732
(lp1733
g69
ag27
ag44
ag75
ag15
ag45
ag46
ag33
ag16
ag22
ag32
ag6
ag9
asS'DB01097'
p1734
(lp1735
g75
ag117
ag27
ag70
ag44
ag19
ag15
ag46
ag33
ag47
ag32
ag16
ag22
ag9
asS'DB01708'
p1736
(lp1737
g31
ag44
ag27
ag45
ag47
ag33
ag12
ag16
ag22
ag32
ag6
ag9
asS'DB01259'
p1738
(lp1739
g37
ag75
ag33
ag9
asS'DB01257'
p1740
(lp1741
g98
ag27
ag19
ag32
ag9
asS'DB01255'
p1742
(lp1743
g36
ag30
ag33
ag12
ag32
ag9
asS'DB01254'
p1744
(lp1745
g75
ag42
ag98
ag37
ag43
ag52
ag15
ag46
ag12
ag32
ag16
ag22
ag6
asS'DB01250'
p1746
(lp1747
g75
ag98
ag44
ag45
ag46
ag15
ag32
ag16
ag22
asS'DB01077'
p1748
(lp1749
g31
ag47
ag33
ag22
asS'DB01076'
p1750
(lp1751
g69
ag43
ag15
ag46
ag33
ag75
ag16
ag22
ag6
ag9
asS'DB01075'
p1752
(lp1753
g31
ag12
ag6
ag22
ag45
ag47
ag32
ag16
asS'DB01073'
p1754
(lp1755
g98
ag42
ag70
ag19
ag15
ag45
ag12
ag16
ag6
ag43
ag33
ag22
ag9
asS'DB01072'
p1756
(lp1757
g27
ag46
ag33
ag22
ag6
asS'DB11125'
p1758
(lp1759
g22
asS'DB00074'
p1760
(lp1761
g117
ag27
ag19
ag52
ag15
ag16
ag22
ag32
ag9
asS'DB00072'
p1762
(lp1763
g75
ag15
ag16
ag32
ag6
ag9
asS'DB00073'
p1764
(lp1765
g75
ag27
ag19
ag45
ag64
ag15
ag33
ag12
ag16
ag32
ag22
asS'DB08604'
p1766
(lp1767
g12
ag22
asS'DB00470'
p1768
(lp1769
g30
ag32
asS'DB00471'
p1770
(lp1771
g41
ag19
ag15
ag46
ag33
ag6
ag16
ag9
asS'DB00472'
p1772
(lp1773
g37
ag36
ag38
ag69
ag117
ag98
ag39
ag30
ag43
ag41
ag31
ag44
ag70
ag52
ag64
ag15
ag42
ag45
ag46
ag33
ag12
ag32
ag16
ag19
ag22
ag47
ag6
asS'DB00474'
p1774
(lp1775
g30
ag64
ag32
ag9
asS'DB00475'
p1776
(lp1777
g47
ag6
ag41
ag12
ag32
ag16
asS'DB00476'
p1778
(lp1779
g36
ag37
ag38
ag117
ag41
ag31
ag30
ag70
ag33
ag12
ag22
ag32
ag9
asS'DB00477'
p1780
(lp1781
g39
ag38
ag40
ag19
ag64
ag45
ag47
asS'DB00478'
p1782
(lp1783
g32
asS'DB01409'
p1784
(lp1785
g19
ag6
ag32
ag9
asS'DB00618'
p1786
(lp1787
g45
ag46
ag33
ag16
ag9
asS'DB00619'
p1788
(lp1789
g75
ag69
ag31
ag44
ag27
ag64
ag19
ag52
ag15
ag45
ag46
ag33
ag12
ag16
ag22
ag32
ag6
asS'DB00611'
p1790
(lp1791
g32
ag36
ag6
ag9
asS'DB00612'
p1792
(lp1793
g117
ag45
ag70
ag46
ag52
ag47
ag16
ag12
ag6
ag9
ag33
asS'DB00615'
p1794
(lp1795
g47
ag16
ag9
asS'DB10975'
p1796
(lp1797
g9
asS'DB10970'
p1798
(lp1799
g9
asS'DB00748'
p1800
(lp1801
g45
ag47
ag16
ag32
asS'DB00962'
p1802
(lp1803
g57
ag41
ag43
ag70
ag19
ag15
ag32
ag6
ag9
asS'DB00279'
p1804
(lp1805
g32
ag12
asS'DB00215'
p1806
(lp1807
g36
ag40
ag38
ag30
ag41
ag70
ag19
ag44
ag64
ag37
ag31
ag45
ag46
ag32
ag12
ag16
ag43
ag9
ag6
ag22
asS'DB00273'
p1808
(lp1809
g42
ag117
ag30
ag40
ag41
ag19
ag15
ag33
ag46
ag32
ag16
ag6
ag70
ag22
asS'DB09462'
p1810
(lp1811
g6
ag22
ag43
ag15
ag64
ag9
ag32
asS'DB00277'
p1812
(lp1813
g27
asS'DB00275'
p1814
(lp1815
g117
ag52
ag6
ag45
ag43
ag46
ag47
ag33
ag16
ag15
ag12
ag9
asS'DB00104'
p1816
(lp1817
g31
ag19
ag64
ag46
ag12
ag32
ag16
ag6
asS'DB00961'
p1818
(lp1819
g27
ag32
ag6
ag64
asS'DB00103'
p1820
(lp1821
g27
ag64
ag19
ag12
ag32
ag6
ag9
asS'DB00966'
p1822
(lp1823
g43
ag52
ag45
ag46
ag47
ag15
ag33
ag12
ag16
ag6
ag9
asS'DB06603'
p1824
(lp1825
g43
ag64
ag19
ag16
ag22
ag32
asS'DB00108'
p1826
(lp1827
g52
ag45
ag19
ag32
ag9
asS'DB00109'
p1828
(lp1829
g27
ag15
ag19
ag46
ag22
ag16
asS'DB00967'
p1830
(lp1831
g6
ag9
asS'DB00294'
p1832
(lp1833
g42
ag117
ag46
ag12
ag32
ag22
ag6
ag9
asS'DB00295'
p1834
(lp1835
g30
ag41
ag64
ag27
ag57
ag32
ag16
ag6
ag9
ag36
ag12
ag22
ag52
ag46
asS'DB00296'
p1836
(lp1837
g42
ag43
ag15
ag64
ag12
ag32
asS'DB00297'
p1838
(lp1839
g43
ag64
ag27
ag32
ag69
ag98
ag44
ag19
ag52
ag15
ag45
ag46
ag47
ag12
ag6
ag33
ag22
ag16
ag9
asS'DB00290'
p1840
(lp1841
g19
ag12
ag16
ag22
ag6
ag9
asS'DB00291'
p1842
(lp1843
g75
ag15
ag33
ag16
ag22
asS'DB00292'
p1844
(lp1845
g32
asS'DB00213'
p1846
(lp1847
g117
ag70
ag31
ag19
ag15
ag33
ag46
ag12
ag32
ag16
ag22
ag47
ag6
ag9
asS'DB03255'
p1848
(lp1849
g9
asS'DB00299'
p1850
(lp1851
g30
ag33
ag16
ag9
asS'DB09511'
p1852
(lp1853
g64
ag19
ag12
ag22
asS'DB06043'
p1854
(lp1855
g64
ag15
ag12
ag16
asS'DB06285'
p1856
(lp1857
g19
ag32
ag6
ag9
asS'DB10553'
p1858
(lp1859
g9
asS'DB06287'
p1860
(lp1861
g75
ag42
ag117
ag19
ag46
ag33
ag16
ag32
ag6
ag9
asS'DB10807'
p1862
(lp1863
g9
asS'DB10556'
p1864
(lp1865
g9
asS'DB06283'
p1866
(lp1867
g40
ag69
ag41
ag27
asS'DB10555'
p1868
(lp1869
g9
asS'DB10558'
p1870
(lp1871
g9
asS'DB10559'
p1872
(lp1873
g9
asS'DB00859'
p1874
(lp1875
g75
ag98
ag15
ag45
ag46
ag47
ag16
ag22
asS'DB00857'
p1876
(lp1877
g33
ag16
ag46
ag47
ag9
asS'DB00854'
p1878
(lp1879
g36
ag30
ag64
ag9
asS'DB00855'
p1880
(lp1881
g6
ag22
asS'DB00852'
p1882
(lp1883
g12
ag45
ag31
ag47
ag32
ag16
ag57
ag22
ag9
ag6
asS'DB00853'
p1884
(lp1885
g75
ag33
ag16
ag22
ag9
asS'DB00850'
p1886
(lp1887
g39
ag38
ag41
ag19
ag40
ag64
ag45
ag47
ag30
ag70
ag32
ag15
ag12
ag16
ag6
asS'DB00851'
p1888
(lp1889
g44
ag16
ag9
asS'DB14078'
p1890
(lp1891
g64
asS'DB11730'
p1892
(lp1893
g37
ag12
ag6
asS'DB06196'
p1894
(lp1895
g9
asS'DB10701'
p1896
(lp1897
g9
asS'DB10706'
p1898
(lp1899
g9
asS'DB10705'
p1900
(lp1901
g9
asS'DB10704'
p1902
(lp1903
g6
ag9
asS'DB12965'
p1904
(lp1905
g44
ag27
ag45
ag47
ag33
ag16
asS'DB14498'
p1906
(lp1907
g52
ag6
asS'DB14709'
p1908
(lp1909
g9
asS'DB14256'
p1910
(lp1911
g22
asS'DB09269'
p1912
(lp1913
g263
ag27
ag64
ag52
ag16
ag32
ag22
ag6
asS'DB09264'
p1914
(lp1915
g30
ag19
ag9
asS'DB00133'
p1916
(lp1917
g117
ag52
ag27
ag45
ag6
ag16
ag32
ag9
asS'DB08930'
p1918
(lp1919
g117
ag70
ag15
ag19
ag46
ag33
ag12
ag16
ag32
ag6
ag9
asS'DB08932'
p1920
(lp1921
g52
ag6
asS'DB08935'
p1922
(lp1923
g27
ag16
ag22
ag32
ag9
asS'DB08934'
p1924
(lp1925
g41
ag64
asS'DB10888'
p1926
(lp1927
g9
asS'DB10496'
p1928
(lp1929
g9
asS'DB00136'
p1930
(lp1931
g46
ag32
ag9
asS'DB10885'
p1932
(lp1933
g9
asS'DB10887'
p1934
(lp1935
g9
asS'DB10882'
p1936
(lp1937
g9
asS'DB01088'
p1938
(lp1939
g52
ag19
ag22
ag16
ag32
asS'DB09079'
p1940
(lp1941
g19
ag46
ag12
ag22
ag16
ag32
asS'DB09078'
p1942
(lp1943
g37
ag98
ag52
ag19
ag46
ag22
ag32
ag6
asS'DB01082'
p1944
(lp1945
g15
ag45
ag16
ag9
asS'DB01083'
p1946
(lp1947
g46
ag70
ag9
asS'DB01080'
p1948
(lp1949
g41
ag30
ag15
ag19
ag33
ag32
ag6
asS'DB01081'
p1950
(lp1951
g46
ag9
ag27
ag32
asS'DB01086'
p1952
(lp1953
g31
ag22
ag6
ag9
asS'DB01087'
p1954
(lp1955
g37
ag45
asS'DB01085'
p1956
(lp1957
g52
ag19
ag9
ag6
ag46
ag12
ag32
ag16
asS'DB01249'
p1958
(lp1959
g52
ag64
ag46
ag33
ag12
ag22
ag32
ag6
ag9
asS'DB01247'
p1960
(lp1961
g41
ag70
ag22
asS'DB01240'
p1962
(lp1963
g27
ag52
ag16
ag22
ag6
asS'DB01241'
p1964
(lp1965
g69
ag15
ag16
ag9
ag22
asS'DB01242'
p1966
(lp1967
g36
ag69
ag38
ag43
ag30
ag41
ag31
ag70
ag64
ag19
ag15
ag47
ag12
ag16
asS'DB00049'
p1968
(lp1969
g27
ag45
ag9
asS'DB01066'
p1970
(lp1971
g75
ag98
ag45
ag47
ag33
ag16
ag22
ag9
asS'DB00598'
p1972
(lp1973
g44
ag263
ag47
ag12
ag6
ag22
asS'DB01060'
p1974
(lp1975
g263
ag33
ag45
ag117
ag43
ag47
ag37
ag70
ag16
ag9
ag19
ag22
ag46
ag12
ag32
ag6
asS'DB01062'
p1976
(lp1977
g37
ag32
ag30
ag6
ag15
ag9
asS'DB00593'
p1978
(lp1979
g40
ag41
ag47
ag33
asS'DB00043'
p1980
(lp1981
g15
ag22
ag16
ag9
asS'DB00590'
p1982
(lp1983
g12
ag16
ag6
asS'DB01068'
p1984
(lp1985
g40
ag70
ag19
ag41
ag16
ag6
ag22
asS'DB01069'
p1986
(lp1987
g30
ag38
ag47
ag57
ag19
ag16
ag6
ag64
ag32
asS'DB00595'
p1988
(lp1989
g45
ag15
ag47
ag46
ag16
ag9
asS'DB00046'
p1990
(lp1991
g15
ag6
ag9
asS'DB12091'
p1992
(lp1993
g64
ag52
ag32
ag6
ag9
asS'DB00448'
p1994
(lp1995
g263
ag117
ag43
ag70
ag38
ag37
ag19
ag69
ag45
ag46
ag33
ag47
ag12
ag32
ag16
ag64
ag22
ag6
ag9
asS'DB00445'
p1996
(lp1997
g43
ag27
ag52
ag16
ag9
ag22
ag19
asS'DB00444'
p1998
(lp1999
g27
ag15
ag16
ag22
ag32
ag9
asS'DB00446'
p2000
(lp2001
g30
ag15
ag16
ag9
asS'DB00441'
p2002
(lp2003
g75
ag98
ag27
ag52
ag15
ag12
ag16
ag32
ag22
ag6
asS'DB00440'
p2004
(lp2005
g37
ag33
ag16
ag30
ag44
ag15
ag9
ag45
ag46
ag47
ag43
ag22
ag6
asS'DB00443'
p2006
(lp2007
g69
ag43
ag27
ag64
ag52
ag15
ag46
ag12
ag6
ag22
ag32
ag9
asS'DB01406'
p2008
(lp2009
g75
ag70
ag46
ag33
ag12
ag16
ag22
ag6
asS'DB01400'
p2010
(lp2011
g64
ag9
asS'DB09183'
p2012
(lp2013
g33
ag22
asS'DB11057'
p2014
(lp2015
g22
asS'DB10949'
p2016
(lp2017
g9
asS'DB11134'
p2018
(lp2019
g32
ag22
asS'DB10493'
p2020
(lp2021
g9
asS'DB03247'
p2022
(lp2023
g16
ag6
ag9
asS'DB10491'
p2024
(lp2025
g9
ag6
asS'DB10497'
p2026
(lp2027
g9
ag6
asS'DB00134'
p2028
(lp2029
g27
ag117
ag52
ag45
ag6
ag16
ag32
ag9
asS'DB10495'
p2030
(lp2031
g6
ag9
asS'DB10494'
p2032
(lp2033
g9
asS'DB11943'
p2034
(lp2035
g15
ag32
ag6
asS'DB10499'
p2036
(lp2037
g64
ag6
ag9
asS'DB10498'
p2038
(lp2039
g9
ag6
asS'DB11945'
p2040
(lp2041
g27
ag45
ag33
ag22
ag16
ag32
ag6
asS'DB00918'
p2042
(lp2043
g36
ag69
ag43
ag15
ag12
ag32
ag22
ag9
asS'DB00917'
p2044
(lp2045
g27
ag12
ag22
ag9
asS'DB00916'
p2046
(lp2047
g15
ag46
ag16
ag33
ag45
ag6
ag32
ag22
ag9
asS'DB00915'
p2048
(lp2049
g38
ag30
ag41
ag52
ag64
ag19
ag47
ag70
ag32
ag6
ag9
asS'DB00912'
p2050
(lp2051
g45
ag46
ag27
ag33
ag12
ag16
ag32
ag6
asS'DB00911'
p2052
(lp2053
g15
ag33
ag16
asS'DB00910'
p2054
(lp2055
g30
ag27
ag64
ag19
ag52
ag32
ag6
asS'DB13169'
p2056
(lp2057
g6
ag22
asS'DB00625'
p2058
(lp2059
g69
ag98
ag41
ag19
ag15
ag46
ag33
asS'DB00624'
p2060
(lp2061
g57
ag42
ag263
ag117
ag32
ag19
ag70
ag6
ag64
ag22
ag12
ag16
asS'DB00627'
p2062
(lp2063
g69
ag27
ag44
ag75
ag15
ag45
ag46
ag33
ag16
ag12
ag22
ag6
ag32
ag9
asS'DB00626'
p2064
(lp2065
g31
ag6
ag22
ag9
ag27
ag64
asS'DB00621'
p2066
(lp2067
g44
ag6
ag22
asS'DB00620'
p2068
(lp2069
g69
ag27
ag52
ag64
ag15
ag46
ag12
ag32
ag22
ag6
ag9
asS'DB00623'
p2070
(lp2071
g39
ag40
ag38
ag19
ag64
ag47
ag32
asS'DB00622'
p2072
(lp2073
g43
ag12
ag52
ag16
ag6
asS'DB06720'
p2074
(lp2075
g16
ag22
ag32
ag9
asS'DB00628'
p2076
(lp2077
g30
ag41
asS'DB11835'
p2078
(lp2079
g32
asS'DB09526'
p2080
(lp2081
g9
asS'DB10831'
p2082
(lp2083
g6
ag9
asS'DB10830'
p2084
(lp2085
g9
asS'DB06290'
p2086
(lp2087
g64
ag6
asS'DB10832'
p2088
(lp2089
g9
ag6
asS'DB10835'
p2090
(lp2091
g6
ag9
asS'DB10834'
p2092
(lp2093
g6
ag9
asS'DB10837'
p2094
(lp2095
g9
asS'DB10836'
p2096
(lp2097
g6
ag9
asS'DB10838'
p2098
(lp2099
g9
ag6
asS'DB04835'
p2100
(lp2101
g70
ag19
ag15
ag33
ag12
ag6
asS'DB00829'
p2102
(lp2103
g40
ag70
ag64
ag19
asS'DB00828'
p2104
(lp2105
g44
ag9
asS'DB00822'
p2106
(lp2107
g15
ag12
asS'DB00820'
p2108
(lp2109
g117
ag33
ag12
ag32
ag22
ag52
asS'DB00825'
p2110
(lp2111
g6
asS'DB06616'
p2112
(lp2113
g37
ag19
ag52
ag33
ag16
ag32
ag6
asS'DB06614'
p2114
(lp2115
g98
ag30
ag33
ag9
asS'DB06186'
p2116
(lp2117
g45
ag15
ag33
ag22
asS'DB05578'
p2118
(lp2119
g98
ag27
ag64
ag12
ag22
ag16
ag32
asS'DB10713'
p2120
(lp2121
g9
ag6
asS'DB10714'
p2122
(lp2123
g9
ag6
asS'DB10715'
p2124
(lp2125
g9
asS'DB10717'
p2126
(lp2127
g9
ag6
asS'DB10718'
p2128
(lp2129
g9
asS'DB10719'
p2130
(lp2131
g9
ag6
asS'DB06292'
p2132
(lp2133
g9
asS'DB10748'
p2134
(lp2135
g9
asS'DB03754'
p2136
(lp2137
g52
asS'DB10833'
p2138
(lp2139
g9
ag6
asS'DB03756'
p2140
(lp2141
g22
ag32
asS'DB14483'
p2142
(lp2143
g22
asS'DB10919'
p2144
(lp2145
g9
asS'DB05990'
p2146
(lp2147
g117
ag70
ag22
asS'DB14240'
p2148
(lp2149
g9
asS'DB01168'
p2150
(lp2151
g15
ag45
ag22
ag16
ag6
asS'DB09324'
p2152
(lp2153
g47
ag45
ag33
ag6
asS'DB09321'
p2154
(lp2155
g12
ag22
ag32
ag6
ag9
asS'DB05351'
p2156
(lp2157
g42
ag117
ag12
ag32
ag46
ag33
ag6
ag9
asS'DB00988'
p2158
(lp2159
g52
ag32
asS'DB09065'
p2160
(lp2161
g69
ag98
ag19
ag15
ag46
ag33
ag22
asS'DB09063'
p2162
(lp2163
g37
ag75
ag43
ag27
ag15
ag19
ag46
ag12
ag16
asS'DB01279'
p2164
(lp2165
g57
ag16
ag32
ag9
asS'DB01278'
p2166
(lp2167
g46
ag6
asS'DB01271'
p2168
(lp2169
g19
ag6
ag9
asS'DB01270'
p2170
(lp2171
g15
ag12
asS'DB01273'
p2172
(lp2173
g117
ag31
ag41
ag70
ag33
ag12
ag16
ag22
ag6
asS'DB01272'
p2174
(lp2175
g98
ag64
ag19
ag32
ag6
ag9
asS'DB01275'
p2176
(lp2177
g41
ag33
ag45
ag15
ag46
ag52
ag47
ag16
ag6
ag12
ag117
ag43
ag32
asS'DB01274'
p2178
(lp2179
g263
ag117
ag12
ag32
ag6
ag9
asS'DB01277'
p2180
(lp2181
g57
ag22
ag9
asS'DB01276'
p2182
(lp2183
g22
ag9
asS'DB01050'
p2184
(lp2185
g44
ag31
ag98
ag19
ag45
ag46
ag27
ag32
ag16
ag12
ag33
ag6
ag9
ag22
ag47
ag36
ag30
ag70
asS'DB00580'
p2186
(lp2187
g19
ag117
ag44
ag27
ag15
ag33
ag52
ag46
ag31
ag32
ag16
ag12
ag6
ag9
ag22
asS'DB00582'
p2188
(lp2189
g40
ag42
ag69
ag30
ag31
ag43
ag64
ag19
ag52
ag15
ag45
ag46
ag47
ag33
ag12
ag27
ag16
ag32
ag6
ag9
asS'DB00583'
p2190
(lp2191
g22
ag32
asS'DB00584'
p2192
(lp2193
g19
ag44
ag52
ag15
ag64
ag33
ag45
ag46
ag12
ag16
ag9
asS'DB00585'
p2194
(lp2195
g43
ag16
ag9
asS'DB00586'
p2196
(lp2197
g98
ag43
ag27
ag44
ag19
ag45
ag33
ag46
ag47
ag31
ag12
ag6
ag32
ag70
ag16
ag22
ag9
asS'DB01183'
p2198
(lp2199
g40
ag43
ag36
ag44
ag30
ag52
ag64
ag33
ag12
ag32
ag46
ag47
ag6
ag9
asS'DB01182'
p2200
(lp2201
g64
ag98
ag117
ag43
ag47
ag12
ag16
ag70
ag6
ag15
ag46
ag32
ag22
asS'DB00458'
p2202
(lp2203
g41
ag15
ag32
ag16
ag12
ag6
ag36
ag70
ag30
ag47
asS'DB00459'
p2204
(lp2205
g69
ag98
ag15
ag46
ag32
ag22
ag6
asS'DB01186'
p2206
(lp2207
g38
ag30
ag43
ag41
ag19
ag70
ag64
ag15
ag52
ag46
ag31
ag32
ag12
ag16
ag6
asS'DB01185'
p2208
(lp2209
g6
ag22
ag12
asS'DB11062'
p2210
(lp2211
g45
ag47
asS'DB01189'
p2212
(lp2213
g44
ag64
ag12
ag22
ag32
asS'DB00451'
p2214
(lp2215
g64
ag12
ag32
asS'DB00457'
p2216
(lp2217
g46
ag47
ag16
ag6
asS'DB00454'
p2218
(lp2219
g64
ag32
ag36
ag38
ag30
ag9
ag47
ag16
asS'DB00455'
p2220
(lp2221
g9
asS'DB10950'
p2222
(lp2223
g9
asS'DB01017'
p2224
(lp2225
g45
ag33
ag46
ag16
ag9
ag47
asS'DB00056'
p2226
(lp2227
g75
ag27
ag22
ag16
ag9
asS'DB00054'
p2228
(lp2229
g43
ag19
ag12
ag16
ag22
ag9
asS'DB01016'
p2230
(lp2231
g45
ag47
ag16
ag27
ag12
ag6
asS'DB00053'
p2232
(lp2233
g19
asS'DB00050'
p2234
(lp2235
g9
asS'DB00051'
p2236
(lp2237
g75
ag42
ag117
ag44
ag27
ag64
ag19
ag47
ag46
ag33
ag12
ag22
ag16
ag32
ag9
asS'DB11132'
p2238
(lp2239
g22
ag31
ag44
ag46
ag47
ag33
ag12
ag16
ag32
ag6
asS'DB10480'
p2240
(lp2241
g6
ag9
asS'DB10481'
p2242
(lp2243
g6
ag9
asS'DB10482'
p2244
(lp2245
g9
asS'DB10483'
p2246
(lp2247
g9
asS'DB10484'
p2248
(lp2249
g9
ag6
asS'DB10485'
p2250
(lp2251
g9
asS'DB10486'
p2252
(lp2253
g6
ag9
asS'DB10487'
p2254
(lp2255
g9
asS'DB00126'
p2256
(lp2257
g40
ag27
ag70
ag64
ag22
ag9
ag32
ag16
ag6
asS'DB10489'
p2258
(lp2259
g9
ag6
asS'DB00122'
p2260
(lp2261
g36
ag37
ag38
ag98
ag117
ag43
ag41
ag31
ag70
ag44
ag64
ag19
ag52
ag15
ag45
ag46
ag33
ag12
ag16
ag32
ag22
ag6
ag9
asS'DB00121'
p2262
(lp2263
g22
ag16
ag6
ag9
asS'DB00544'
p2264
(lp2265
g47
ag16
ag22
ag12
ag9
ag6
asS'DB00908'
p2266
(lp2267
g30
ag45
ag47
ag36
ag43
ag16
ag22
ag32
asS'DB00909'
p2268
(lp2269
g41
ag44
ag15
ag33
ag47
ag32
ag16
ag6
asS'DB00904'
p2270
(lp2271
g40
ag37
ag43
ag36
ag9
ag30
ag33
ag32
asS'DB00905'
p2272
(lp2273
g32
asS'DB00906'
p2274
(lp2275
g40
ag117
ag41
ag27
ag19
ag15
ag33
ag12
ag16
ag32
ag22
ag6
asS'DB00907'
p2276
(lp2277
g40
ag27
asS'DB00900'
p2278
(lp2279
g69
ag15
ag46
ag16
asS'DB04938'
p2280
(lp2281
g42
ag12
ag32
asS'DB13110'
p2282
(lp2283
g57
asS'DB01018'
p2284
(lp2285
g70
ag12
ag6
ag32
asS'DB00633'
p2286
(lp2287
g37
ag30
ag43
ag64
ag52
ag12
ag22
ag32
asS'DB00630'
p2288
(lp2289
g31
ag33
ag22
asS'DB00631'
p2290
(lp2291
g27
ag19
ag52
ag46
ag33
ag16
ag32
ag22
ag6
asS'DB00542'
p2292
(lp2293
g98
ag44
ag33
ag45
ag46
ag16
ag12
ag6
asS'DB00634'
p2294
(lp2295
g44
ag33
ag47
ag45
ag6
asS'DB09539'
p2296
(lp2297
g117
ag41
ag64
ag19
ag46
ag12
ag32
ag6
ag9
asS'DB00543'
p2298
(lp2299
g39
ag38
ag41
ag19
ag46
ag47
ag12
ag32
ag16
ag6
asS'DB10828'
p2300
(lp2301
g6
ag9
asS'DB10826'
p2302
(lp2303
g6
ag9
asS'DB06262'
p2304
(lp2305
g38
ag30
ag46
ag32
ag9
asS'DB06261'
p2306
(lp2307
g9
asS'DB00839'
p2308
(lp2309
g45
ag47
ag16
asS'DB00831'
p2310
(lp2311
g40
ag38
ag64
ag19
ag45
ag47
ag16
asS'DB00833'
p2312
(lp2313
g98
ag45
ag33
ag47
ag16
ag22
ag6
ag9
asS'DB00834'
p2314
(lp2315
g32
ag6
asS'DB00835'
p2316
(lp2317
g45
ag47
ag32
ag16
asS'DB00836'
p2318
(lp2319
g33
ag9
ag43
ag64
asS'DB06663'
p2320
(lp2321
g37
ag46
ag12
ag32
ag22
asS'DB06403'
p2322
(lp2323
g52
ag6
asS'DB06402'
p2324
(lp2325
g32
ag9
asS'DB06401'
p2326
(lp2327
g42
ag46
ag12
ag32
asS'DB03166'
p2328
(lp2329
g64
ag52
ag32
ag22
ag6
asS'DB08826'
p2330
(lp2331
g31
ag27
ag19
ag46
ag47
ag32
asS'DB14128'
p2332
(lp2333
g9
asS'DB14126'
p2334
(lp2335
g69
ag98
ag19
ag15
ag41
ag46
ag70
ag33
ag6
asS'DB14125'
p2336
(lp2337
g98
ag44
ag52
ag45
ag46
ag33
ag15
ag47
ag12
ag16
ag6
asS'DB08828'
p2338
(lp2339
g22
asS'DB06317'
p2340
(lp2341
g15
ag19
ag16
ag32
asS'DB10729'
p2342
(lp2343
g9
asS'DB10728'
p2344
(lp2345
g6
ag9
asS'DB10725'
p2346
(lp2347
g9
asS'DB10724'
p2348
(lp2349
g6
ag9
asS'DB10727'
p2350
(lp2351
g9
asS'DB10721'
p2352
(lp2353
g9
asS'DB10720'
p2354
(lp2355
g9
asS'DB10723'
p2356
(lp2357
g9
asS'DB10722'
p2358
(lp2359
g6
ag9
asS'DB13295'
p2360
(lp2361
g64
ag9
asS'DB14239'
p2362
(lp2363
g9
ag22
asS'DB14726'
p2364
(lp2365
g12
ag22
ag16
ag9
asS'DB09208'
p2366
(lp2367
g32
ag6
ag9
asS'DB09330'
p2368
(lp2369
g75
ag52
ag16
asS'DB09331'
p2370
(lp2371
g52
ag27
ag19
ag16
ag32
ag6
asS'DB11455'
p2372
(lp2373
g37
asS'DB11180'
p2374
(lp2375
g22
ag32
ag9
asS'DB11181'
p2376
(lp2377
g30
ag6
asS'DB12364'
p2378
(lp2379
g22
ag32
asS'DB01266'
p2380
(lp2381
g22
ag6
asS'DB01267'
p2382
(lp2383
g39
ag40
ag37
ag38
ag41
ag70
ag19
ag15
ag47
ag6
ag32
ag9
asS'DB01264'
p2384
(lp2385
g46
ag33
ag22
asS'DB01265'
p2386
(lp2387
g69
ag15
ag16
asS'DB01262'
p2388
(lp2389
g27
ag19
ag52
ag12
ag16
ag22
ag32
ag6
ag9
asS'DB01263'
p2390
(lp2391
g37
ag15
ag19
ag46
ag22
ag16
ag32
ag6
asS'DB01261'
p2392
(lp2393
g33
ag27
ag9
asS'DB00261'
p2394
(lp2395
g75
ag31
ag43
ag19
ag46
ag12
ag32
ag16
ag6
asS'DB09053'
p2396
(lp2397
g75
ag27
ag19
ag33
ag22
ag16
ag32
asS'DB09052'
p2398
(lp2399
g41
ag27
ag19
ag47
ag46
ag16
ag32
ag6
ag9
asS'DB09054'
p2400
(lp2401
g75
ag27
ag19
ag33
ag9
asS'DB05039'
p2402
(lp2403
g19
ag32
asS'DB01269'
p2404
(lp2405
g75
ag27
ag33
asS'DB01048'
p2406
(lp2407
g117
ag70
ag19
ag69
ag15
ag46
ag33
ag12
ag32
ag16
ag6
ag9
asS'DB01046'
p2408
(lp2409
g6
asS'DB10369'
p2410
(lp2411
g6
ag9
asS'DB01044'
p2412
(lp2413
g33
ag6
ag9
asS'DB01042'
p2414
(lp2415
g75
ag64
ag45
ag16
ag6
ag22
ag9
asS'DB01043'
p2416
(lp2417
g263
ag39
ag42
ag38
ag40
ag117
ag30
ag27
ag70
ag19
ag52
ag15
ag64
ag33
ag12
ag32
ag16
ag46
ag47
ag45
ag22
asS'DB01041'
p2418
(lp2419
g40
ag75
ag42
ag31
ag98
ag117
ag27
ag52
ag64
ag15
ag19
ag46
ag33
ag12
ag22
ag16
ag32
ag6
asS'DB01190'
p2420
(lp2421
g98
ag33
ag47
ag16
ag9
asS'DB11073'
p2422
(lp2423
g12
ag9
ag22
asS'DB01192'
p2424
(lp2425
g57
ag36
ag19
ag32
ag6
ag9
asS'DB11071'
p2426
(lp2427
g36
ag31
asS'DB01194'
p2428
(lp2429
g44
ag47
ag33
ag32
asS'DB01195'
p2430
(lp2431
g64
ag15
ag32
ag16
ag6
asS'DB01196'
p2432
(lp2433
g64
ag12
ag16
ag32
ag6
asS'DB01197'
p2434
(lp2435
g98
ag31
ag44
ag64
ag46
ag33
ag45
ag47
ag12
ag16
ag6
ag9
asS'DB13961'
p2436
(lp2437
g117
ag27
ag19
ag22
ag16
ag32
ag6
asS'DB00481'
p2438
(lp2439
g42
ag19
ag32
ag22
asS'DB00480'
p2440
(lp2441
g263
ag75
ag42
ag117
ag27
ag52
ag64
ag15
ag19
ag45
ag46
ag33
ag12
ag22
ag16
ag32
ag6
asS'DB10921'
p2442
(lp2443
g9
asS'DB00482'
p2444
(lp2445
g263
ag42
ag98
ag41
ag27
ag44
ag19
ag33
ag46
ag47
ag12
ag32
ag16
ag6
ag22
ag9
asS'DB00485'
p2446
(lp2447
g98
ag45
ag47
ag16
ag9
asS'DB10926'
p2448
(lp2449
g6
ag9
asS'DB00339'
p2450
(lp2451
g69
ag45
ag15
ag47
ag16
ag46
ag33
ag22
ag6
ag9
asS'DB00338'
p2452
(lp2453
g98
ag44
ag33
ag45
ag70
ag46
ag47
ag16
ag37
ag6
ag9
ag43
ag27
ag22
ag19
ag52
ag32
ag12
asS'DB00337'
p2454
(lp2455
g19
ag6
ag9
asS'DB00488'
p2456
(lp2457
g15
ag16
asS'DB00335'
p2458
(lp2459
g43
ag64
ag16
ag12
ag47
ag46
asS'DB10928'
p2460
(lp2461
g9
ag6
asS'DB00333'
p2462
(lp2463
g43
ag57
ag64
ag37
ag52
ag16
ag36
ag6
ag22
ag9
asS'DB00332'
p2464
(lp2465
g32
ag9
ag6
ag19
ag64
asS'DB00331'
p2466
(lp2467
g27
ag45
ag117
ag12
ag32
ag6
ag52
ag15
ag33
ag47
ag46
ag16
ag9
asS'DB00330'
p2468
(lp2469
g15
ag16
asS'DB01992'
p2470
(lp2471
g9
asS'DB00022'
p2472
(lp2473
g75
ag98
ag41
ag43
ag27
ag19
ag15
ag46
ag33
ag12
ag32
asS'DB00020'
p2474
(lp2475
g27
ag47
ag22
ag16
ag32
ag6
ag9
asS'DB00026'
p2476
(lp2477
g19
ag16
ag9
asS'DB00025'
p2478
(lp2479
g9
asS'DB00159'
p2480
(lp2481
g22
asS'DB00158'
p2482
(lp2483
g9
ag22
ag42
ag117
ag46
ag32
ag12
ag16
ag6
asS'DB00153'
p2484
(lp2485
g32
ag6
ag16
ag9
asS'DB00152'
p2486
(lp2487
g22
ag52
ag32
ag16
ag6
ag9
asS'DB00939'
p2488
(lp2489
g44
ag45
ag47
ag33
ag12
ag22
ag32
ag6
asS'DB00938'
p2490
(lp2491
g43
ag70
ag19
ag15
ag32
ag6
ag12
ag22
ag9
asS'DB04920'
p2492
(lp2493
g12
ag32
asS'DB00930'
p2494
(lp2495
g46
ag12
ag32
ag22
asS'DB00932'
p2496
(lp2497
g117
ag70
ag15
ag46
ag16
asS'DB00935'
p2498
(lp2499
g32
ag9
asS'DB00934'
p2500
(lp2501
g75
ag41
ag15
ag47
ag33
ag12
ag16
ag32
ag6
asS'DB00937'
p2502
(lp2503
g47
ag32
ag6
asS'DB00936'
p2504
(lp2505
g12
ag6
ag31
ag22
ag9
asS'DB00963'
p2506
(lp2507
g22
asS'DB00960'
p2508
(lp2509
g12
ag6
ag47
asS'DB00804'
p2510
(lp2511
g30
ag32
ag9
ag6
asS'DB10859'
p2512
(lp2513
g9
asS'DB10858'
p2514
(lp2515
g9
asS'DB00800'
p2516
(lp2517
g12
asS'DB00802'
p2518
(lp2519
g64
ag36
ag9
asS'DB10580'
p2520
(lp2521
g9
asS'DB10582'
p2522
(lp2523
g9
asS'DB00809'
p2524
(lp2525
g12
asS'DB00808'
p2526
(lp2527
g33
ag46
ag47
ag16
ag9
asS'DB06273'
p2528
(lp2529
g31
ag117
ag27
ag19
ag33
ag22
ag16
ag32
ag9
asS'DB06674'
p2530
(lp2531
g75
ag27
ag19
ag16
ag32
ag9
asS'DB06410'
p2532
(lp2533
g70
ag46
ag32
ag6
ag9
asS'DB06412'
p2534
(lp2535
g44
ag22
ag6
asS'DB06413'
p2536
(lp2537
g33
ag16
ag9
asS'DB06414'
p2538
(lp2539
g70
ag15
ag45
ag46
ag33
ag12
ag6
asS'DB06415'
p2540
(lp2541
g43
ag27
ag22
ag16
ag32
asS'DB10457'
p2542
(lp2543
g9
asS'DB10456'
p2544
(lp2545
g9
asS'DB10454'
p2546
(lp2547
g9
asS'DB10452'
p2548
(lp2549
g6
ag9
asS'DB10451'
p2550
(lp2551
g9
asS'DB10450'
p2552
(lp2553
g9
asS'DB10459'
p2554
(lp2555
g9
ag6
asS'DB10458'
p2556
(lp2557
g6
ag9
asS'DB00964'
p2558
(lp2559
g32
ag22
ag6
asS'DB10738'
p2560
(lp2561
g9
asS'DB10739'
p2562
(lp2563
g9
asS'DB10732'
p2564
(lp2565
g9
asS'DB10733'
p2566
(lp2567
g9
asS'DB10730'
p2568
(lp2569
g9
asS'DB10731'
p2570
(lp2571
g9
asS'DB10736'
p2572
(lp2573
g9
asS'DB10737'
p2574
(lp2575
g9
asS'DB10734'
p2576
(lp2577
g9
asS'DB10735'
p2578
(lp2579
g6
ag9
asS'DB14227'
p2580
(lp2581
g6
ag9
asS'DB08941'
p2582
(lp2583
g52
asS'DB08947'
p2584
(lp2585
g52
ag64
ag15
ag12
ag33
ag22
ag32
ag6
asS'DB10547'
p2586
(lp2587
g9
asS'DB09043'
p2588
(lp2589
g15
ag19
ag9
asS'DB09048'
p2590
(lp2591
g36
ag30
ag9
asS'DB01212'
p2592
(lp2593
g45
ag47
ag16
ag46
ag33
ag22
ag9
asS'DB01211'
p2594
(lp2595
g263
ag37
ag43
ag19
ag33
ag117
ag46
ag69
ag38
ag70
ag98
ag16
ag9
ag44
ag45
ag64
ag47
ag12
ag32
ag22
ag6
asS'DB01210'
p2596
(lp2597
g64
ag33
asS'DB01217'
p2598
(lp2599
g263
ag33
ag12
ag32
ag6
ag9
asS'DB01215'
p2600
(lp2601
g70
ag47
ag33
ag6
ag9
asS'DB01214'
p2602
(lp2603
g12
ag32
ag6
asS'DB01219'
p2604
(lp2605
g38
ag16
ag52
ag9
asS'DB00499'
p2606
(lp2607
g44
ag45
ag32
ag6
ag22
asS'DB00324'
p2608
(lp2609
g44
ag33
ag47
asS'DB00325'
p2610
(lp2611
g12
ag32
asS'DB01039'
p2612
(lp2613
g69
ag42
ag19
ag33
ag47
ag32
ag12
ag16
ag6
ag22
asS'DB00327'
p2614
(lp2615
g57
ag64
ag36
ag32
ag46
ag9
asS'DB01032'
p2616
(lp2617
g44
ag15
ag45
ag47
ag9
asS'DB01030'
p2618
(lp2619
g75
ag27
ag64
ag19
ag15
ag16
ag22
asS'DB01037'
p2620
(lp2621
g39
ag36
ag38
ag30
ag70
ag41
ag64
ag32
ag22
ag6
asS'DB01036'
p2622
(lp2623
g9
asS'DB01035'
p2624
(lp2625
g64
ag45
ag12
ag16
ag22
asS'DB00493'
p2626
(lp2627
g45
ag33
ag47
ag16
ag22
ag9
asS'DB00490'
p2628
(lp2629
g39
ag36
ag32
ag12
ag16
ag6
ag30
ag22
asS'DB11089'
p2630
(lp2631
g22
ag32
asS'DB11088'
p2632
(lp2633
g22
asS'DB11086'
p2634
(lp2635
g22
asS'DB11082'
p2636
(lp2637
g12
asS'DB01327'
p2638
(lp2639
g45
ag33
ag47
ag16
ag9
ag22
asS'DB13919'
p2640
(lp2641
g52
ag45
ag46
ag47
ag33
ag12
ag16
ag9
asS'DB01324'
p2642
(lp2643
g47
ag41
ag16
ag46
ag22
ag6
asS'DB01323'
p2644
(lp2645
g22
ag9
asS'DB01320'
p2646
(lp2647
g263
ag30
ag19
ag69
ag64
ag27
ag33
ag47
ag32
ag16
ag6
ag37
ag22
asS'DB01143'
p2648
(lp2649
g64
ag33
ag12
ag32
ag9
asS'DB01142'
p2650
(lp2651
g39
ag41
ag40
ag47
ag32
ag16
ag30
ag6
ag70
ag19
asS'DB01141'
p2652
(lp2653
g30
ag64
ag45
ag33
ag12
ag16
ag9
asS'DB01140'
p2654
(lp2655
g45
ag33
ag47
ag16
ag9
ag22
asS'DB00496'
p2656
(lp2657
g32
ag9
asS'DB00497'
p2658
(lp2659
g42
ag98
ag30
ag41
ag27
ag44
ag52
ag36
ag64
ag31
ag45
ag46
ag47
ag70
ag32
ag9
ag6
ag16
ag22
ag33
ag12
asS'DB00494'
p2660
(lp2661
g38
ag43
ag41
ag30
ag70
ag19
ag15
ag45
ag47
ag12
ag32
ag16
ag22
ag6
asS'DB00495'
p2662
(lp2663
g69
ag70
ag117
ag15
ag19
ag45
ag46
ag33
ag16
ag12
ag32
ag6
ag9
asS'DB00492'
p2664
(lp2665
g263
ag70
ag44
ag52
ag64
ag45
ag33
ag46
ag12
ag16
ag9
ag6
asS'DB00321'
p2666
(lp2667
g36
ag39
ag38
ag30
ag41
ag70
ag15
ag40
ag47
ag12
ag32
ag16
ag19
ag6
asS'DB00322'
p2668
(lp2669
g44
ag47
ag22
ag16
ag9
asS'DB00323'
p2670
(lp2671
g38
ag30
ag70
ag64
ag52
ag15
ag12
ag16
ag22
ag32
ag6
asS'DB08797'
p2672
(lp2673
g31
ag22
asS'DB00030'
p2674
(lp2675
g15
ag70
ag6
ag19
ag9
ag22
ag12
asS'DB00031'
p2676
(lp2677
g263
ag43
ag64
ag52
ag46
ag12
ag32
ag22
ag9
asS'DB00033'
p2678
(lp2679
g40
ag75
ag98
ag42
ag52
ag46
ag33
ag12
ag16
asS'DB00035'
p2680
(lp2681
g6
ag9
asS'DB00039'
p2682
(lp2683
g6
asS'DB00927'
p2684
(lp2685
g16
ag47
ag75
ag9
ag6
ag40
ag33
ag30
ag44
ag27
ag19
ag12
ag22
ag32
asS'DB00924'
p2686
(lp2687
g36
ag15
ag38
ag12
ag32
ag16
ag6
ag9
asS'DB00921'
p2688
(lp2689
g57
ag36
ag44
ag32
ag19
ag6
ag9
asS'DB00140'
p2690
(lp2691
g22
ag32
ag16
ag6
ag9
asS'DB00142'
p2692
(lp2693
g117
ag27
ag52
ag45
ag16
ag6
ag32
ag9
asS'DB00145'
p2694
(lp2695
g117
ag52
ag27
ag45
ag6
ag16
ag32
ag9
asS'DB00928'
p2696
(lp2697
g19
ag27
ag47
ag6
ag75
ag22
ag32
asS'DB00929'
p2698
(lp2699
g98
ag43
ag27
ag44
ag19
ag45
ag33
ag15
ag46
ag47
ag12
ag32
ag16
ag6
ag9
ag22
asS'DB09559'
p2700
(lp2701
g42
asS'DB00813'
p2702
(lp2703
g42
ag64
ag69
ag40
ag30
ag36
ag41
ag27
ag32
ag70
ag9
ag19
ag15
ag16
ag6
ag22
ag12
asS'DB06799'
p2704
(lp2705
g31
ag36
ag22
asS'DB00811'
p2706
(lp2707
g27
ag41
ag19
ag15
ag45
ag46
ag33
ag12
ag16
ag64
ag52
ag22
ag9
asS'DB00814'
p2708
(lp2709
g44
ag33
ag46
ag47
ag32
ag16
ag31
ag12
ag6
ag22
ag9
asS'DB10840'
p2710
(lp2711
g6
ag9
asS'DB06791'
p2712
(lp2713
g46
ag32
ag9
asS'DB00819'
p2714
(lp2715
g44
ag52
ag45
ag33
ag47
ag9
asS'DB10846'
p2716
(lp2717
g6
ag9
asS'DB06794'
p2718
(lp2719
g6
asS'DB04868'
p2720
(lp2721
g263
ag37
ag75
ag31
ag117
ag43
ag27
ag52
ag15
ag19
ag46
ag12
ag22
ag16
ag32
asS'DB04861'
p2722
(lp2723
g16
asS'DB06643'
p2724
(lp2725
g19
ag46
ag9
asS'DB10444'
p2726
(lp2727
g6
ag9
asS'DB10446'
p2728
(lp2729
g6
ag9
asS'DB10447'
p2730
(lp2731
g9
asS'DB10442'
p2732
(lp2733
g9
asS'DB10443'
p2734
(lp2735
g6
ag9
asS'DB10449'
p2736
(lp2737
g6
ag9
asS'DB00661'
p2738
(lp2739
g52
ag33
ag70
ag69
ag98
ag12
ag44
ag6
ag46
ag64
ag32
asS'DB14106'
p2740
(lp2741
g6
asS'DB06335'
p2742
(lp2743
g16
ag6
ag9
asS'DB00889'
p2744
(lp2745
g37
ag36
ag30
ag32
ag16
ag46
ag22
ag9
asS'DB00884'
p2746
(lp2747
g31
ag32
ag22
ag33
asS'DB14217'
p2748
(lp2749
g69
ag44
ag19
ag52
ag45
ag46
ag47
ag33
ag12
ag32
ag16
ag22
ag6
asS'DB14740'
p2750
(lp2751
g75
ag64
ag15
ag19
ag33
ag12
ag22
ag16
ag32
ag6
asS'DB14211'
p2752
(lp2753
g27
ag9
asS'DB14210'
p2754
(lp2755
g263
ag117
ag44
ag70
ag45
ag46
ag64
ag19
ag52
ag12
ag33
ag6
ag16
ag22
asS'DB14213'
p2756
(lp2757
g44
ag64
ag43
ag47
ag15
ag46
ag16
ag6
asS'DB09222'
p2758
(lp2759
g45
ag32
ag9
asS'DB02546'
p2760
(lp2761
g42
ag98
ag27
ag19
ag12
ag16
ag32
asS'DB09228'
p2762
(lp2763
g9
asS'DB10695'
p2764
(lp2765
g9
asS'DB10694'
p2766
(lp2767
g6
ag9
asS'DB10691'
p2768
(lp2769
g9
asS'DB10984'
p2770
(lp2771
g6
ag9
asS'DB10987'
p2772
(lp2773
g9
asS'DB10981'
p2774
(lp2775
g9
asS'DB14694'
p2776
(lp2777
g9
asS'DB09318'
p2778
(lp2779
g42
ag46
ag12
ag32
ag22
ag6
ag9
asS'DB09317'
p2780
(lp2781
g42
ag46
ag12
ag32
ag22
ag6
ag9
asS'DB09033'
p2782
(lp2783
g27
ag9
asS'DB09031'
p2784
(lp2785
g47
ag33
ag16
ag22
asS'DB09037'
p2786
(lp2787
g27
ag45
ag15
ag19
ag46
ag33
ag16
ag6
ag9
asS'DB10651'
p2788
(lp2789
g9
asS'DB09035'
p2790
(lp2791
g69
ag75
ag52
ag27
ag15
ag19
ag46
ag33
ag16
ag6
asS'DB09039'
p2792
(lp2793
g16
ag22
asS'DB01200'
p2794
(lp2795
g43
ag32
ag12
ag38
ag6
asS'DB01201'
p2796
(lp2797
g117
ag15
ag46
ag16
ag6
ag9
asS'DB01202'
p2798
(lp2799
g40
ag41
ag46
ag16
ag33
ag47
ag9
asS'DB01203'
p2800
(lp2801
g70
ag47
ag12
ag45
ag46
ag16
ag9
asS'DB01204'
p2802
(lp2803
g75
ag98
ag27
ag19
ag52
ag15
ag12
ag32
ag22
ag6
ag9
asS'DB01205'
p2804
(lp2805
g30
ag32
asS'DB01206'
p2806
(lp2807
g16
ag22
asS'DB01029'
p2808
(lp2809
g70
ag52
ag45
ag46
ag33
ag47
ag16
ag12
ag6
ag9
asS'DB01020'
p2810
(lp2811
g19
ag6
ag43
ag31
ag12
ag32
ag16
ag22
asS'DB01023'
p2812
(lp2813
g12
ag6
asS'DB01024'
p2814
(lp2815
g117
ag30
ag43
ag27
ag31
ag52
ag19
ag64
ag15
ag46
ag32
ag16
ag47
ag22
ag6
asS'DB01026'
p2816
(lp2817
g43
ag69
ag117
ag45
ag44
ag16
ag9
asS'DB00715'
p2818
(lp2819
g36
ag40
ag38
ag69
ag30
ag43
ag31
ag41
ag44
ag19
ag52
ag15
ag27
ag70
ag45
ag47
ag12
ag32
ag46
ag16
ag33
ag22
ag6
ag9
asS'DB00242'
p2820
(lp2821
g75
ag27
ag19
ag45
ag15
ag16
ag22
ag6
asS'DB10351'
p2822
(lp2823
g9
ag6
asS'DB09145'
p2824
(lp2825
g31
ag22
ag52
ag27
ag16
ag9
asS'DB11091'
p2826
(lp2827
g9
ag22
asS'DB01339'
p2828
(lp2829
g9
asS'DB11256'
p2830
(lp2831
g42
ag12
ag22
ag32
ag9
asS'DB11257'
p2832
(lp2833
g12
ag31
ag22
ag9
asS'DB01337'
p2834
(lp2835
g9
asS'DB01330'
p2836
(lp2837
g33
ag45
ag47
ag16
ag9
ag22
asS'DB01331'
p2838
(lp2839
g45
ag33
ag47
ag16
ag22
ag9
asS'DB01332'
p2840
(lp2841
g45
ag47
ag16
ag9
ag22
asS'DB11251'
p2842
(lp2843
g6
ag22
ag32
ag16
ag9
asS'DB00319'
p2844
(lp2845
g42
ag45
ag33
ag40
ag47
ag16
ag43
ag31
ag64
ag52
ag22
ag46
ag12
ag32
ag6
asS'DB00318'
p2846
(lp2847
g57
ag47
ag15
ag16
ag38
ag45
ag31
ag32
ag30
ag64
ag36
ag41
ag46
ag19
ag70
ag6
ag22
ag33
ag9
asS'DB01156'
p2848
(lp2849
g39
ag30
ag41
ag70
ag31
ag19
ag15
ag33
ag46
ag12
ag32
ag16
ag22
ag6
ag9
asS'DB01157'
p2850
(lp2851
g19
ag16
asS'DB01150'
p2852
(lp2853
g45
ag47
ag33
ag16
ag22
ag9
asS'DB01151'
p2854
(lp2855
g38
ag36
ag43
ag41
ag30
ag15
ag47
ag12
ag32
ag16
ag6
asS'DB00310'
p2856
(lp2857
g46
ag47
ag16
ag30
ag64
ag12
asS'DB00313'
p2858
(lp2859
g39
ag41
ag70
ag19
ag33
ag46
ag47
ag69
ag32
ag16
ag9
ag6
ag22
ag15
asS'DB00312'
p2860
(lp2861
g30
asS'DB00315'
p2862
(lp2863
g39
ag36
ag43
ag37
ag19
ag15
ag46
ag12
ag16
ag32
ag22
ag6
ag9
asS'DB10900'
p2864
(lp2865
g9
asS'DB00317'
p2866
(lp2867
g75
ag98
ag33
asS'DB00316'
p2868
(lp2869
g69
ag31
ag32
ag70
ag6
ag44
ag47
ag36
ag16
ag98
ag12
ag30
ag22
ag57
ag37
ag64
ag41
ag40
ag45
ag15
ag33
ag52
ag46
ag9
asS'DB00799'
p2870
(lp2871
g22
ag6
asS'DB00798'
p2872
(lp2873
g15
ag47
ag32
ag16
ag6
asS'DB00795'
p2874
(lp2875
g75
ag98
ag44
ag15
ag27
ag45
ag46
ag47
ag33
ag19
ag16
ag9
asS'DB00794'
p2876
(lp2877
g41
ag47
ag22
asS'DB09495'
p2878
(lp2879
g45
ag47
ag9
asS'DB00790'
p2880
(lp2881
g98
ag44
ag64
ag16
ag6
ag9
asS'DB09496'
p2882
(lp2883
g12
ag45
ag47
ag9
asS'DB00009'
p2884
(lp2885
g263
ag42
ag27
ag52
ag64
ag46
ag22
ag12
ag32
ag9
asS'DB00008'
p2886
(lp2887
g75
ag41
ag27
ag15
ag19
ag46
ag33
ag12
ag22
ag16
ag32
ag9
asS'DB00558'
p2888
(lp2889
g30
ag33
ag22
ag6
ag9
asS'DB00005'
p2890
(lp2891
g75
ag27
ag15
ag19
ag33
ag22
ag16
ag9
asS'DB00556'
p2892
(lp2893
g43
ag64
ag22
ag32
ag9
asS'DB00007'
p2894
(lp2895
g70
ag19
ag15
ag32
ag12
ag42
ag6
ag69
ag75
ag117
ag22
ag52
ag16
asS'DB00554'
p2896
(lp2897
g98
ag27
ag44
ag19
ag45
ag33
ag46
ag47
ag12
ag32
ag16
ag22
ag6
ag9
asS'DB00553'
p2898
(lp2899
g6
asS'DB00552'
p2900
(lp2901
g42
ag27
ag64
ag15
ag19
ag32
asS'DB00551'
p2902
(lp2903
g45
ag16
asS'DB00550'
p2904
(lp2905
g75
ag44
ag47
ag16
ag22
ag6
ag33
asS'DB00953'
p2906
(lp2907
g36
ag43
ag12
ag32
ag22
ag6
ag9
asS'DB00952'
p2908
(lp2909
g36
ag43
ag12
ag22
ag32
ag9
asS'DB00951'
p2910
(lp2911
g15
ag45
ag69
ag47
ag16
ag46
ag33
ag22
ag6
ag9
asS'DB00950'
p2912
(lp2913
g70
ag9
asS'DB00773'
p2914
(lp2915
g75
ag33
ag16
ag32
ag22
ag9
asS'DB00956'
p2916
(lp2917
g47
ag16
ag44
ag64
ag45
ag36
ag19
ag33
ag31
ag12
ag32
ag52
ag22
ag6
ag9
asS'DB00771'
p2918
(lp2919
g47
ag6
asS'DB00770'
p2920
(lp2921
g27
ag64
ag12
ag22
ag32
ag16
ag6
asS'DB00959'
p2922
(lp2923
g69
ag27
ag46
ag52
ag64
ag43
ag15
ag32
ag12
ag22
ag6
ag9
asS'DB00958'
p2924
(lp2925
g15
ag32
ag16
ag22
ag9
asS'DB09567'
p2926
(lp2927
g117
ag27
ag19
ag16
ag32
ag6
asS'DB10875'
p2928
(lp2929
g9
asS'DB10871'
p2930
(lp2931
g9
asS'DB10870'
p2932
(lp2933
g9
asS'DB10873'
p2934
(lp2935
g6
ag9
asS'DB10872'
p2936
(lp2937
g9
asS'DB10879'
p2938
(lp2939
g6
ag9
asS'DB06788'
p2940
(lp2941
g15
ag12
asS'DB04871'
p2942
(lp2943
g36
ag38
ag41
asS'DB00175'
p2944
(lp2945
g69
ag70
ag27
ag44
ag15
ag45
ag33
ag46
ag75
ag16
ag9
ag6
ag22
asS'DB00177'
p2946
(lp2947
g117
ag98
ag43
ag52
ag15
ag45
ag46
ag47
ag33
ag12
ag16
ag6
ag9
asS'DB00176'
p2948
(lp2949
g39
ag36
ag38
ag117
ag30
ag41
ag43
ag69
ag19
ag70
ag15
ag33
ag46
ag47
ag75
ag32
ag12
ag16
ag9
ag6
ag22
ag64
asS'DB00172'
p2950
(lp2951
g117
ag52
ag27
ag45
ag6
ag16
ag32
ag9
asS'DB06650'
p2952
(lp2953
g27
ag64
ag52
ag19
ag47
ag33
ag12
ag16
ag32
ag9
asS'DB00178'
p2954
(lp2955
g98
ag44
ag15
ag33
ag45
ag46
ag16
ag6
ag47
ag12
asS'DB06654'
p2956
(lp2957
g38
ag36
ag30
ag32
asS'DB06655'
p2958
(lp2959
g41
ag15
ag46
ag22
ag6
ag9
asS'DB00818'
p2960
(lp2961
g117
ag30
ag27
ag15
ag52
ag64
ag46
ag32
ag43
ag9
ag6
ag22
ag12
asS'DB10471'
p2962
(lp2963
g9
asS'DB10470'
p2964
(lp2965
g9
asS'DB10472'
p2966
(lp2967
g6
ag9
asS'DB10475'
p2968
(lp2969
g6
ag9
asS'DB10474'
p2970
(lp2971
g9
asS'DB10479'
p2972
(lp2973
g9
ag6
asS'DB10478'
p2974
(lp2975
g9
asS'DB06795'
p2976
(lp2977
g45
ag22
ag6
asS'DB01111'
p2978
(lp2979
g9
asS'DB08816'
p2980
(lp2981
g32
ag22
asS'DB08815'
p2982
(lp2983
g39
ag38
ag41
ag37
ag70
ag19
ag47
ag32
ag12
asS'DB01501'
p2984
(lp2985
g46
ag9
asS'DB11659'
p2986
(lp2987
g32
asS'DB03793'
p2988
(lp2989
g263
ag36
ag31
ag27
ag64
ag52
ag16
ag32
ag22
ag6
asS'DB14207'
p2990
(lp2991
g263
ag70
ag44
ag52
ag64
ag45
ag46
ag33
ag12
ag16
ag6
ag9
asS'DB14758'
p2992
(lp2993
g9
asS'DB14208'
p2994
(lp2995
g98
ag44
ag15
ag45
ag46
ag47
ag33
ag12
ag16
ag6
asS'DB14209'
p2996
(lp2997
g43
ag44
ag69
ag98
ag46
ag47
ag33
ag52
ag12
ag16
ag6
asS'DB10683'
p2998
(lp2999
g9
asS'DB10681'
p3000
(lp3001
g9
asS'DB10687'
p3002
(lp3003
g9
asS'DB10688'
p3004
(lp3005
g9
asS'DB14115'
p3006
(lp3007
g27
ag64
ag19
ag52
ag45
ag33
ag32
ag6
ag9
asS'DB14112'
p3008
(lp3009
g52
ag27
ag64
ag45
ag33
ag16
ag9
asS'DB11065'
p3010
(lp3011
g9
asS'DB01181'
p3012
(lp3013
g75
ag98
ag42
ag30
ag43
ag27
ag19
ag52
ag15
ag64
ag45
ag46
ag47
ag33
ag12
ag32
ag16
ag22
ag6
ag9
asS'DB11066'
p3014
(lp3015
g9
asS'DB05316'
p3016
(lp3017
g37
ag19
asS'DB09083'
p3018
(lp3019
g32
asS'DB14681'
p3020
(lp3021
g27
ag46
ag69
ag32
ag19
ag22
ag12
asS'DB00450'
p3022
(lp3023
g38
ag43
ag64
ag37
ag32
ag9
asS'DB01188'
p3024
(lp3025
g43
ag6
asS'DB09020'
p3026
(lp3027
g40
ag64
ag9
asS'DB09026'
p3028
(lp3029
g40
ag52
ag98
ag45
ag46
ag47
ag33
ag16
ag6
ag9
asS'DB09027'
p3030
(lp3031
g41
ag64
asS'DB01238'
p3032
(lp3033
g39
ag40
ag117
ag38
ag30
ag43
ag41
ag19
ag46
ag47
ag12
ag32
ag16
ag22
ag9
asS'DB01235'
p3034
(lp3035
g38
ag19
ag70
ag15
ag45
ag47
ag32
ag12
ag16
ag43
ag30
ag6
ag41
ag46
ag22
asS'DB01234'
p3036
(lp3037
g69
ag27
ag64
ag15
ag52
ag19
ag46
ag32
ag12
ag9
ag6
ag43
ag22
asS'DB11315'
p3038
(lp3039
g32
ag22
ag9
asS'DB01236'
p3040
(lp3041
g98
ag44
ag32
ag16
ag9
ag22
ag64
asS'DB11312'
p3042
(lp3043
g22
asS'DB01233'
p3044
(lp3045
g39
ag38
ag41
ag36
ag19
ag47
ag32
ag12
asS'DB01232'
p3046
(lp3047
g42
ag69
ag117
ag37
ag19
ag15
ag45
ag46
ag70
ag33
ag32
ag16
ag22
ag6
asS'DB01579'
p3048
(lp3049
g6
asS'DB12754'
p3050
(lp3051
g22
ag27
ag64
ag32
ag6
asS'DB01783'
p3052
(lp3053
g22
asS'DB11102'
p3054
(lp3055
g27
ag52
ag45
ag6
asS'DB09156'
p3056
(lp3057
g263
ag52
ag64
ag15
ag33
ag12
ag22
ag32
ag6
asS'DB09153'
p3058
(lp3059
g52
ag32
ag6
ag9
ag22
asS'DB01309'
p3060
(lp3061
g15
ag32
ag6
ag9
asS'DB01307'
p3062
(lp3063
g98
ag15
ag6
ag32
ag9
asS'DB01306'
p3064
(lp3065
g15
ag6
ag9
asS'DB01161'
p3066
(lp3067
g64
ag15
ag32
ag22
ag9
asS'DB10918'
p3068
(lp3069
g9
asS'DB01162'
p3070
(lp3071
g32
ag16
ag6
ag9
asS'DB01165'
p3072
(lp3073
g98
ag70
ag44
ag52
ag15
ag64
ag33
ag47
ag32
ag16
ag22
ag6
ag9
asS'DB01164'
p3074
(lp3075
g52
ag6
asS'DB01167'
p3076
(lp3077
g43
ag64
ag52
ag15
ag46
ag33
ag19
ag16
ag32
ag6
ag9
asS'DB01166'
p3078
(lp3079
g263
ag75
ag117
ag43
ag31
ag64
ag19
ag47
ag33
ag16
ag12
ag32
ag22
ag9
asS'DB10912'
p3080
(lp3081
g6
ag9
asS'DB10913'
p3082
(lp3083
g9
asS'DB10910'
p3084
(lp3085
g9
asS'DB10911'
p3086
(lp3087
g6
ag9
asS'DB10917'
p3088
(lp3089
g9
asS'DB10914'
p3090
(lp3091
g9
asS'DB10915'
p3092
(lp3093
g6
ag9
asS'DB09488'
p3094
(lp3095
g9
asS'DB00788'
p3096
(lp3097
g31
ag98
ag19
ag44
ag42
ag27
ag36
ag45
ag33
ag12
ag46
ag52
ag22
ag47
ag32
ag16
ag6
ag9
ag43
ag70
asS'DB00782'
p3098
(lp3099
g32
ag9
asS'DB00783'
p3100
(lp3101
g12
ag42
ag117
ag263
ag46
ag32
ag6
ag9
ag22
ag19
asS'DB00780'
p3102
(lp3103
g30
ag41
ag70
ag32
ag22
ag6
asS'DB00781'
p3104
(lp3105
g31
ag6
ag22
ag9
ag27
ag64
asS'DB00787'
p3106
(lp3107
g30
ag33
ag16
ag32
ag6
ag9
asS'DB00784'
p3108
(lp3109
g98
ag44
ag27
ag19
ag45
ag46
ag47
ag33
ag12
ag16
ag22
ag32
ag6
ag9
asS'DB01015'
p3110
(lp3111
g37
ag30
ag44
ag15
ag45
ag33
ag46
ag47
ag43
ag16
ag22
ag9
asS'DB01014'
p3112
(lp3113
g44
ag19
ag46
asS'DB11135'
p3114
(lp3115
g22
asS'DB00019'
p3116
(lp3117
g98
ag6
ag9
asS'DB00548'
p3118
(lp3119
g6
asS'DB00549'
p3120
(lp3121
g15
ag47
ag22
ag6
asS'DB11131'
p3122
(lp3123
g98
ag70
ag44
ag27
ag19
ag45
ag46
ag47
ag33
ag12
ag16
ag22
ag32
ag6
ag9
asS'DB01012'
p3124
(lp3125
g32
asS'DB00679'
p3126
(lp3127
g39
ag38
ag43
ag64
ag19
ag47
ag16
ag6
asS'DB00540'
p3128
(lp3129
g41
ag44
ag15
ag36
ag47
ag32
ag12
ag16
ag30
ag6
asS'DB00541'
p3130
(lp3131
g263
ag64
ag15
ag19
ag12
ag16
ag32
ag6
ag9
asS'DB00014'
p3132
(lp3133
g42
ag27
ag19
ag12
ag22
ag32
ag6
ag9
asS'DB00015'
p3134
(lp3135
g263
ag46
ag22
ag32
ag6
asS'DB00764'
p3136
(lp3137
g9
ag32
asS'DB00765'
p3138
(lp3139
g70
ag16
asS'DB00766'
p3140
(lp3141
g33
ag45
ag47
ag16
ag9
ag22
asS'DB00761'
p3142
(lp3143
g52
ag6
ag22
asS'DB00762'
p3144
(lp3145
g263
ag75
ag42
ag27
ag64
ag19
ag46
ag12
ag16
ag22
ag6
ag9
asS'DB00947'
p3146
(lp3147
g15
ag19
ag22
ag16
asS'DB00949'
p3148
(lp3149
g41
ag31
ag64
ag19
ag45
ag46
ag47
ag33
ag16
ag32
ag22
ag6
asS'DB00768'
p3150
(lp3151
g6
asS'DB00865'
p3152
(lp3153
g6
asS'DB01609'
p3154
(lp3155
g31
ag98
ag70
ag46
ag47
ag33
ag16
ag22
ag6
ag9
asS'DB10568'
p3156
(lp3157
g9
asS'DB00735'
p3158
(lp3159
g47
asS'DB09570'
p3160
(lp3161
g15
ag33
ag16
asS'DB00307'
p3162
(lp3163
g117
ag6
ag27
ag19
ag52
ag15
ag46
ag16
ag22
ag32
asS'DB00304'
p3164
(lp3165
g42
ag117
ag46
ag12
ag32
ag6
ag22
asS'DB00305'
p3166
(lp3167
g204
ag27
ag52
ag16
ag6
ag22
asS'DB00302'
p3168
(lp3169
g263
ag42
ag12
asS'DB00303'
p3170
(lp3171
g30
ag43
ag27
ag64
ag46
ag32
ag6
ag9
asS'DB00308'
p3172
(lp3173
g43
ag32
asS'DB10860'
p3174
(lp3175
g9
ag6
asS'DB10864'
p3176
(lp3177
g9
asS'DB06228'
p3178
(lp3179
g47
ag33
ag16
ag22
ag9
asS'DB04845'
p3180
(lp3181
g27
ag19
ag15
ag12
ag16
ag22
ag6
ag9
asS'DB04844'
p3182
(lp3183
g39
ag38
ag41
ag43
ag19
asS'DB10574'
p3184
(lp3185
g9
asS'DB00167'
p3186
(lp3187
g27
ag117
ag52
ag45
ag6
ag16
ag32
ag9
asS'DB00165'
p3188
(lp3189
g40
ag22
ag32
ag16
ag6
ag9
asS'DB00169'
p3190
(lp3191
g22
ag31
ag33
ag32
ag16
ag9
asS'DB11793'
p3192
(lp3193
g16
ag32
asS'DB06681'
p3194
(lp3195
g98
ag32
ag9
asS'DB06684'
p3196
(lp3197
g36
ag41
ag30
ag22
asS'DB10468'
p3198
(lp3199
g9
asS'DB10469'
p3200
(lp3201
g9
asS'DB10467'
p3202
(lp3203
g9
asS'DB10464'
p3204
(lp3205
g9
asS'DB10463'
p3206
(lp3207
g6
ag9
asS'DB10460'
p3208
(lp3209
g6
ag9
asS'DB10461'
p3210
(lp3211
g6
ag9
asS'DB02325'
p3212
(lp3213
g31
ag12
ag22
ag69
ag42
ag75
ag43
ag70
ag41
ag117
ag44
ag98
ag30
ag27
ag64
ag19
ag52
ag15
ag45
ag46
ag47
ag33
ag32
ag16
ag6
ag9
asS'DB05812'
p3214
(lp3215
g69
ag43
ag19
ag12
ag32
ag6
asS'DB11074'
p3216
(lp3217
g9
asS'DB05259'
p3218
(lp3219
g69
ag42
ag31
ag27
ag19
ag46
ag12
ag16
ag22
ag32
ag6
ag9
asS'DB06813'
p3220
(lp3221
g27
ag16
ag6
asS'DB00355'
p3222
(lp3223
g16
asS'DB14569'
p3224
(lp3225
g15
ag32
asS'DB00356'
p3226
(lp3227
g9
asS'DB10679'
p3228
(lp3229
g9
asS'DB10678'
p3230
(lp3231
g9
asS'DB10676'
p3232
(lp3233
g9
asS'DB10675'
p3234
(lp3235
g9
asS'DB10672'
p3236
(lp3237
g9
asS'DB10670'
p3238
(lp3239
g9
asS'DB00059'
p3240
(lp3241
g117
ag46
ag22
ag9
asS'DB01226'
p3242
(lp3243
g9
asS'DB06218'
p3244
(lp3245
g98
ag41
ag47
ag33
asS'DB10368'
p3246
(lp3247
g9
ag6
asS'DB05676'
p3248
(lp3249
g41
asS'DB05679'
p3250
(lp3251
g27
ag19
ag22
ag32
ag9
asS'DB00128'
p3252
(lp3253
g117
ag27
ag52
ag45
ag16
ag6
ag32
ag9
asS'DB10488'
p3254
(lp3255
g9
asS'DB00744'
p3256
(lp3257
g70
asS'DB00648'
p3258
(lp3259
g32
asS'DB01229'
p3260
(lp3261
g75
ag40
ag43
ag27
ag44
ag19
ag15
ag46
ag64
ag33
ag12
ag16
ag32
ag22
ag6
ag9
asS'DB11309'
p3262
(lp3263
g42
ag9
asS'DB00431'
p3264
(lp3265
g41
asS'DB01222'
p3266
(lp3267
g70
ag15
ag19
ag46
ag32
ag22
ag9
asS'DB01223'
p3268
(lp3269
g27
asS'DB01220'
p3270
(lp3271
g98
ag19
ag6
ag22
ag9
asS'DB01221'
p3272
(lp3273
g32
ag9
asS'DB11300'
p3274
(lp3275
g45
ag32
ag9
asS'DB01224'
p3276
(lp3277
g37
ag39
ag42
ag38
ag117
ag30
ag41
ag19
ag46
ag33
ag47
ag32
ag16
ag22
ag6
ag9
asS'DB01225'
p3278
(lp3279
g117
ag52
ag19
ag16
ag22
ag6
asS'DB04930'
p3280
(lp3281
g6
as.