ccollections
defaultdict
p0
(c__builtin__
list
p1
tp2
Rp3
S'Hepatic necrosis'
p4
(lp5
S'DB01050'
p6
aS'DB00685'
p7
aS'DB00978'
p8
aS'DB00634'
p9
aS'DB00814'
p10
aS'DB00598'
p11
aS'DB00324'
p12
aS'DB00316'
p13
aS'DB00722'
p14
aS'DB09104'
p15
aS'DB00338'
p16
aS'DB01390'
p17
aS'DB00580'
p18
aS'DB00675'
p19
aS'DB00621'
p20
aS'DB00788'
p21
aS'DB00763'
p22
aS'DB00712'
p23
aS'DB00999'
p24
aS'DB01250'
p25
aS'DB00540'
p26
aS'DB00215'
p27
aS'DB00641'
p28
aS'DB01236'
p29
aS'DB00542'
p30
aS'DB00956'
p31
aS'DB09477'
p32
aS'DB00584'
p33
aS'DB00379'
p34
aS'DB00178'
p35
aS'DB01155'
p36
aS'DB00175'
p37
aS'DB00492'
p38
aS'DB01149'
p39
aS'DB00698'
p40
aS'DB00881'
p41
aS'DB00537'
p42
aS'DB00207'
p43
aS'DB00909'
p44
aS'DB00586'
p45
aS'DB00929'
p46
aS'DB00437'
p47
aS'DB00227'
p48
aS'DB01015'
p49
aS'DB00440'
p50
aS'DB00482'
p51
aS'DB00497'
p52
aS'DB00554'
p53
aS'DB00991'
p54
aS'DB01165'
p55
aS'DB00790'
p56
aS'DB00819'
p57
aS'DB00472'
p58
aS'DB00605'
p59
aS'DB00461'
p60
aS'DB00550'
p61
aS'DB00519'
p62
aS'DB00715'
p63
aS'DB00238'
p64
aS'DB01394'
p65
aS'DB01032'
p66
aS'DB01399'
p67
aS'DB00921'
p68
aS'DB01183'
p69
aS'DB01197'
p70
aS'DB00199'
p71
aS'DB00263'
p72
aS'DB00396'
p73
aS'DB01137'
p74
aS'DB00381'
p75
aS'DB01097'
p76
aS'DB00627'
p77
aS'DB14207'
p78
aS'DB05245'
p79
aS'DB00749'
p80
aS'DB00285'
p81
aS'DB00864'
p82
aS'DB01009'
p83
aS'DB00869'
p84
aS'DB00373'
p85
aS'DB00860'
p86
aS'DB01014'
p87
aS'DB00465'
p88
aS'DB00968'
p89
aS'DB01095'
p90
aS'DB00795'
p91
aS'DB14125'
p92
aS'DB00703'
p93
aS'DB14210'
p94
aS'DB00877'
p95
aS'DB00861'
p96
aS'DB00208'
p97
aS'DB00117'
p98
aS'DB11132'
p99
aS'DB00736'
p100
aS'DB00122'
p101
aS'DB00218'
p102
aS'DB00500'
p103
aS'DB00669'
p104
aS'DB00499'
p105
aS'DB01229'
p106
aS'DB00661'
p107
aS'DB14209'
p108
aS'DB01175'
p109
aS'DB00976'
p110
aS'DB01099'
p111
aS'DB00359'
p112
aS'DB00851'
p113
aS'DB14208'
p114
aS'DB14217'
p115
aS'DB06412'
p116
aS'DB14213'
p117
aS'DB12965'
p118
aS'DB01026'
p119
aS'DB00573'
p120
aS'DB00363'
p121
aS'DB00753'
p122
aS'DB01211'
p123
aS'DB00828'
p124
aS'DB01708'
p125
aS'DB00784'
p126
aS'DB06774'
p127
aS'DB00863'
p128
aS'DB11131'
p129
aS'DB00619'
p130
aS'DB11105'
p131
aS'DB00362'
p132
aS'DB02325'
p133
aS'DB00660'
p134
aS'DB00484'
p135
aS'DB01194'
p136
aS'DB00939'
p137
aS'DB00322'
p138
aS'DB00297'
p139
aS'DB00281'
p140
aS'DB01189'
p141
aS'DB00927'
p142
aS'DB00051'
p143
aS'DB05382'
p144
aS'DB14516'
p145
aS'DB00520'
p146
asS'Thrombocytopenia'
p147
(lp148
g142
ag6
aS'DB01324'
p149
aS'DB00524'
p150
aS'DB00839'
p151
aS'DB01219'
p152
aS'DB00206'
p153
ag7
ag8
aS'DB00595'
p154
aS'DB00335'
p155
aS'DB01016'
p156
ag13
ag31
aS'DB00501'
p157
aS'DB00186'
p158
aS'DB00916'
p159
aS'DB01275'
p160
ag24
aS'DB01332'
p161
aS'DB00774'
p162
aS'DB01157'
p163
aS'DB00295'
p164
aS'DB00422'
p165
aS'DB00458'
p166
ag128
aS'DB00982'
p167
aS'DB00531'
p168
aS'DB00318'
p169
aS'DB00489'
p170
ag10
aS'DB00612'
p171
aS'DB00488'
p172
aS'DB01241'
p173
ag50
aS'DB00835'
p174
aS'DB00514'
p175
aS'DB00852'
p176
aS'DB00996'
p177
aS'DB00254'
p178
ag14
ag15
ag16
ag17
ag18
aS'DB01330'
p179
ag19
aS'DB00695'
p180
aS'DB06692'
p181
aS'DB01140'
p182
aS'DB00319'
p183
aS'DB00843'
p184
aS'DB00343'
p185
aS'DB00201'
p186
ag21
aS'DB01017'
p187
ag22
aS'DB01320'
p188
ag23
aS'DB01104'
p189
aS'DB01186'
p190
ag75
aS'DB00333'
p191
aS'DB00176'
p192
ag25
aS'DB01327'
p193
aS'DB01142'
p194
aS'DB00529'
p195
aS'DB00190'
p196
aS'DB01235'
p197
aS'DB00445'
p198
aS'DB01109'
p199
ag26
aS'DB00457'
p200
aS'DB00371'
p201
ag27
ag28
aS'DB01039'
p202
ag29
aS'DB00567'
p203
aS'DB00564'
p204
aS'DB00384'
p205
aS'DB01008'
p206
aS'DB00590'
p207
aS'DB00490'
p208
aS'DB01182'
p209
aS'DB00280'
p210
ag30
ag32
aS'DB00681'
p211
aS'DB00806'
p212
aS'DB00684'
p213
ag33
aS'DB00069'
p214
aS'DB01060'
p215
aS'DB06822'
p216
ag34
aS'DB01068'
p217
aS'DB00766'
p218
ag35
ag123
aS'DB01069'
p219
aS'DB01112'
p220
ag36
ag37
aS'DB00282'
p221
aS'DB00313'
p222
aS'DB00808'
p223
ag38
aS'DB01202'
p224
aS'DB01118'
p225
aS'DB01073'
p226
ag39
aS'DB06779'
p227
aS'DB00427'
p228
ag40
aS'DB00880'
p229
aS'DB00310'
p230
aS'DB00585'
p231
aS'DB00273'
p232
aS'DB00268'
p233
ag41
ag104
aS'DB01115'
p234
ag42
aS'DB00390'
p235
aS'DB00575'
p236
ag43
aS'DB00252'
p237
aS'DB00241'
p238
aS'DB01190'
p239
ag44
aS'DB00622'
p240
aS'DB01042'
p241
ag45
ag46
aS'DB00264'
p242
aS'DB00649'
p243
aS'DB00341'
p244
aS'DB01067'
p245
aS'DB00493'
p246
aS'DB00674'
p247
ag47
aS'DB00857'
p248
ag48
ag49
ag51
aS'DB00555'
p249
aS'DB00358'
p250
aS'DB01156'
p251
ag52
aS'DB01035'
p252
aS'DB00833'
p253
ag53
ag54
aS'DB00924'
p254
aS'DB00321'
p255
aS'DB00213'
p256
aS'DB00196'
p257
aS'DB00697'
p258
aS'DB01212'
p259
aS'DB00993'
p260
ag55
ag56
aS'DB01331'
p261
aS'DB00759'
p262
aS'DB00099'
p263
aS'DB01043'
p264
aS'DB01076'
p265
ag58
aS'DB00973'
p266
aS'DB00220'
p267
ag59
aS'DB01166'
p268
aS'DB00951'
p269
ag119
ag60
aS'DB00415'
p270
aS'DB00243'
p271
aS'DB01048'
p272
aS'DB00544'
p273
ag61
aS'DB00468'
p274
aS'DB00421'
p275
aS'DB00350'
p276
ag62
aS'DB00989'
p277
aS'DB00758'
p278
ag63
ag64
aS'DB01075'
p279
aS'DB01101'
p280
aS'DB00370'
p281
aS'DB00787'
p282
aS'DB01224'
p283
aS'DB00233'
p284
aS'DB00745'
p285
aS'DB01004'
p286
aS'DB00608'
p287
ag70
aS'DB01136'
p288
aS'DB01225'
p289
aS'DB00811'
p290
aS'DB01162'
p291
aS'DB00334'
p292
aS'DB00709'
p293
ag71
ag72
aS'DB00900'
p294
aS'DB00246'
p295
aS'DB01151'
p296
aS'DB01029'
p297
aS'DB06809'
p298
aS'DB00535'
p299
aS'DB01238'
p300
aS'DB00975'
p301
ag74
aS'DB01024'
p302
ag100
aS'DB01232'
p303
aS'DB00678'
p304
aS'DB00911'
p305
ag76
aS'DB00686'
p306
ag77
ag78
ag79
aS'DB00413'
p307
aS'DB04896'
p308
aS'DB09026'
p309
aS'DB00448'
p310
ag80
aS'DB01085'
p311
aS'DB00594'
p312
ag81
aS'DB01273'
p313
aS'DB00495'
p314
aS'DB00734'
p315
ag82
aS'DB01030'
p316
aS'DB01195'
p317
aS'DB01150'
p318
aS'DB00275'
p319
aS'DB00485'
p320
aS'DB01623'
p321
ag83
aS'DB04854'
p322
aS'DB00434'
p323
aS'DB00330'
p324
aS'DB00615'
p325
aS'DB01129'
p326
ag88
aS'DB00813'
p327
aS'DB00601'
p328
aS'DB06413'
p329
aS'DB00841'
p330
aS'DB06216'
p331
aS'DB09422'
p332
aS'DB00563'
p333
aS'DB01551'
p334
aS'DB06209'
p335
ag89
ag90
ag91
ag92
aS'DB00673'
p336
aS'DB00512'
p337
aS'DB00205'
p338
ag95
aS'DB01006'
p339
aS'DB00543'
p340
aS'DB00314'
p341
aS'DB13867'
p342
aS'DB01606'
p343
aS'DB00438'
p344
aS'DB00230'
p345
aS'DB09401'
p346
ag96
ag97
aS'DB00705'
p347
aS'DB00441'
p348
aS'DB00177'
p349
aS'DB01240'
p350
aS'DB00185'
p351
ag98
ag99
aS'DB00222'
p352
ag102
aS'DB00388'
p353
ag101
aS'DB01242'
p354
ag103
aS'DB00831'
p355
aS'DB00315'
p356
aS'DB00776'
p357
aS'DB00889'
p358
ag106
aS'DB00853'
p359
aS'DB00949'
p360
aS'DB00906'
p361
aS'DB11596'
p362
aS'DB00995'
p363
aS'DB00426'
p364
aS'DB13873'
p365
aS'DB00876'
p366
aS'DB04861'
p367
aS'DB06335'
p368
aS'DB00242'
p369
aS'DB00908'
p370
aS'DB00515'
p371
aS'DB00530'
p372
aS'DB00569'
p373
aS'DB00126'
p374
aS'DB00121'
p375
aS'DB00169'
p376
aS'DB00115'
p377
aS'DB09357'
p378
aS'DB00158'
p379
aS'DB00165'
p380
aS'DB00140'
p381
aS'DB00152'
p382
aS'DB00887'
p383
aS'DB13919'
p384
aS'DB06817'
p385
ag108
aS'DB00471'
p386
aS'DB00966'
p387
aS'DB00738'
p388
ag109
ag65
aS'DB01020'
p389
aS'DB00261'
p390
aS'DB00798'
p391
aS'DB00958'
p392
aS'DB00987'
p393
aS'DB00355'
p394
aS'DB00339'
p395
ag111
aS'DB00997'
p396
aS'DB00195'
p397
aS'DB01117'
p398
aS'DB00494'
p399
aS'DB01254'
p400
aS'DB00284'
p401
aS'DB00475'
p402
aS'DB01005'
p403
aS'DB00283'
p404
aS'DB00618'
p405
aS'DB00393'
p406
aS'DB00526'
p407
ag112
aS'DB01181'
p408
ag113
ag114
aS'DB00671'
p409
ag115
aS'DB00104'
p410
aS'DB06823'
p411
aS'DB00551'
p412
aS'DB01167'
p413
aS'DB00631'
p414
aS'DB12905'
p415
aS'DB00762'
p416
ag121
ag117
aS'DB01597'
p417
aS'DB01598'
p418
aS'DB00068'
p419
aS'DB00582'
p420
aS'DB00912'
p421
aS'DB00305'
p422
aS'DB00752'
p423
aS'DB00513'
p424
aS'DB01066'
p425
ag118
aS'DB00888'
p426
aS'DB00970'
p427
aS'DB03793'
p428
aS'DB09269'
p429
aS'DB00748'
p430
aS'DB00344'
p431
aS'DB01416'
p432
aS'DB00650'
p433
aS'DB01098'
p434
aS'DB00346'
p435
aS'DB00063'
p436
aS'DB00361'
p437
aS'DB00672'
p438
aS'DB01124'
p439
aS'DB00232'
p440
ag140
aS'DB01406'
p441
aS'DB00454'
p442
aS'DB00074'
p443
aS'DB00408'
p444
aS'DB01262'
p445
aS'DB09039'
p446
ag120
aS'DB09031'
p447
aS'DB11251'
p448
aS'DB00757'
p449
aS'DB00087'
p450
aS'DB00374'
p451
aS'DB00934'
p452
aS'DB09073'
p453
aS'DB00726'
p454
aS'DB00299'
p455
aS'DB00041'
p456
ag125
aS'DB06616'
p457
aS'DB00444'
p458
aS'DB00773'
p459
aS'DB00571'
p460
ag126
aS'DB00380'
p461
aS'DB00307'
p462
aS'DB00398'
p463
aS'DB01413'
p464
aS'DB01201'
p465
aS'DB00518'
p466
aS'DB01119'
p467
aS'DB09096'
p468
aS'DB00659'
p469
aS'DB00750'
p470
aS'DB00679'
p471
ag94
ag130
ag131
aS'DB09570'
p472
aS'DB00765'
p473
aS'DB04845'
p474
aS'DB00859'
p475
aS'DB02546'
p476
aS'DB06219'
p477
ag129
aS'DB00323'
p478
aS'DB04572'
p479
ag132
aS'DB06201'
p480
aS'DB00770'
p481
aS'DB08935'
p482
aS'DB00291'
p483
aS'DB06720'
p484
aS'DB00436'
p485
aS'DB01203'
p486
aS'DB00073'
p487
aS'DB06228'
p488
aS'DB00746'
p489
aS'DB06603'
p490
aS'DB01082'
p491
aS'DB00290'
p492
aS'DB08910'
p493
aS'DB13961'
p494
aS'DB09567'
p495
aS'DB06176'
p496
aS'DB00536'
p497
aS'DB05294'
p498
aS'DB01206'
p499
aS'DB01609'
p500
aS'DB00054'
p501
ag133
aS'DB05259'
p502
aS'DB00560'
p503
aS'DB01141'
p504
aS'DB06650'
p505
aS'DB00419'
p506
aS'DB00932'
p507
aS'DB01280'
p508
aS'DB10343'
p509
aS'DB08870'
p510
aS'DB00060'
p511
aS'DB01590'
p512
aS'DB00080'
p513
aS'DB00682'
p514
aS'DB14511'
p515
aS'DB00128'
p516
aS'DB14577'
p517
aS'DB14547'
p518
aS'DB00142'
p519
aS'DB00145'
p520
aS'DB00167'
p521
aS'DB01378'
p522
aS'DB00134'
p523
aS'DB01345'
p524
aS'DB00172'
p525
aS'DB00133'
p526
ag145
ag138
aS'DB00193'
p527
aS'DB00850'
p528
aS'DB00026'
p529
aS'DB01265'
p530
aS'DB08871'
p531
aS'DB08880'
p532
aS'DB06211'
p533
aS'DB08901'
p534
ag139
aS'DB00112'
p535
aS'DB01132'
p536
aS'DB01168'
p537
aS'DB00702'
p538
aS'DB04398'
p539
aS'DB08876'
p540
aS'DB00033'
p541
aS'DB00541'
p542
aS'DB00446'
p543
aS'DB01041'
p544
aS'DB08873'
p545
ag127
aS'DB01611'
p546
aS'DB06043'
p547
aS'DB00331'
p548
aS'DB01268'
p549
aS'DB04868'
p550
aS'DB00480'
p551
aS'DB00570'
p552
aS'DB09077'
p553
aS'DB00078'
p554
aS'DB06769'
p555
aS'DB00262'
p556
aS'DB09036'
p557
aS'DB09330'
p558
aS'DB08930'
p559
aS'DB00609'
p560
aS'DB03247'
p561
aS'DB06813'
p562
aS'DB05015'
p563
aS'DB06589'
p564
aS'DB00020'
p565
aS'DB08896'
p566
aS'DB06595'
p567
aS'DB14112'
p568
aS'DB00072'
p569
aS'DB00110'
p570
aS'DB05109'
p571
aS'DB06605'
p572
aS'DB00539'
p573
aS'DB08889'
p574
aS'DB06366'
p575
ag143
aS'DB01196'
p576
aS'DB00188'
p577
aS'DB00065'
p578
aS'DB01279'
p579
aS'DB00090'
p580
aS'DB05578'
p581
aS'DB00043'
p582
aS'DB08911'
p583
ag144
aS'DB14740'
p584
aS'DB00432'
p585
aS'DB06287'
p586
aS'DB04953'
p587
aS'DB05773'
p588
aS'DB09052'
p589
aS'DB00005'
p590
aS'DB01744'
p591
aS'DB00624'
p592
aS'DB09063'
p593
ag146
aS'DB09331'
p594
aS'DB00348'
p595
aS'DB06674'
p596
aS'DB11945'
p597
aS'DB09079'
p598
aS'DB09053'
p599
aS'DB00109'
p600
aS'DB00694'
p601
aS'DB14726'
p602
aS'DB08904'
p603
aS'DB05889'
p604
aS'DB09145'
p605
aS'DB00947'
p606
aS'DB09074'
p607
aS'DB11793'
p608
aS'DB00899'
p609
aS'DB00111'
p610
aS'DB05239'
p611
aS'DB06273'
p612
aS'DB00056'
p613
aS'DB00775'
p614
aS'DB12483'
p615
aS'DB11581'
p616
aS'DB14575'
p617
aS'DB06772'
p618
aS'DB09037'
p619
aS'DB00007'
p620
aS'DB01263'
p621
aS'DB06317'
p622
aS'DB00347'
p623
aS'DB09035'
p624
aS'DB12001'
p625
aS'DB08875'
p626
aS'DB00153'
p627
aS'DB08877'
p628
aS'DB00642'
p629
aS'DB00008'
p630
aS'DB06415'
p631
aS'DB01088'
p632
asS'Ventricular tachycardia'
p633
(lp634
g155
ag301
ag170
ag14
ag181
aS'DB01200'
p635
aS'DB06230'
p636
ag189
ag190
ag75
ag24
ag191
ag192
aS'DB00656'
p637
aS'DB00235'
p638
ag139
aS'DB00668'
p639
ag198
aS'DB00450'
p640
ag240
ag123
ag71
ag39
ag231
ag233
ag104
aS'DB00296'
p641
ag235
ag43
ag45
ag46
ag242
ag247
aS'DB00962'
p642
aS'DB00308'
p643
aS'DB00904'
p644
ag342
aS'DB00938'
p645
ag258
aS'DB00425'
p646
ag265
ag58
ag119
ag69
ag274
ag63
aS'DB00998'
p647
ag72
ag296
ag300
ag74
ag302
ag304
aS'DB01362'
p648
ag81
aS'DB01367'
p649
aS'DB00216'
p650
ag268
ag330
ag215
ag310
ag209
ag183
ag343
ag346
ag101
ag185
aS'DB00953'
p651
ag354
aS'DB00031'
p652
ag356
ag106
aS'DB01188'
p653
ag349
ag108
ag388
ag109
aS'DB00561'
p654
ag389
ag16
ag396
ag196
ag399
ag197
ag400
ag27
ag160
aS'DB00883'
p655
aS'DB00918'
p656
aS'DB00740'
p657
ag413
aS'DB00320'
p658
ag420
ag49
ag50
ag286
aS'DB00303'
p659
aS'DB00640'
p660
ag237
ag121
ag449
aS'DB00633'
p661
aS'DB01234'
p662
ag144
ag133
ag140
ag456
aS'DB00959'
p663
aS'DB00022'
p664
ag471
ag408
aS'DB00818'
p665
ag387
aS'DB04844'
p666
ag390
ag21
ag490
aS'DB00572'
p667
ag281
ag498
ag501
ag226
aS'DB00556'
p668
aS'DB00836'
p669
ag370
aS'DB00952'
p670
ag319
aS'DB00443'
p671
ag534
ag88
ag175
aS'DB06213'
p672
ag550
aS'DB00204'
p673
aS'DB09134'
p674
ag573
ag577
ag518
ag145
aS'DB05812'
p675
aS'DB06206'
p676
ag591
ag593
ag393
ag601
aS'DB08865'
p677
aS'DB09462'
p678
aS'DB11104'
p679
ag117
ag629
ag631
asS'Gastric ulcer'
p680
(lp681
g6
ag279
ag13
ag186
aS'DB00184'
p682
ag21
aS'DB00626'
p683
ag131
aS'DB01086'
p684
ag144
ag133
ag140
aS'DB00994'
p685
aS'DB00781'
p686
ag605
ag176
aS'DB06799'
p687
aS'DB00936'
p688
ag353
ag175
aS'DB00366'
p689
ag517
aS'DB08797'
p690
aS'DB11257'
p691
ag145
aS'DB11118'
p692
ag591
ag10
ag18
ag184
ag23
ag190
ag238
ag169
ag27
ag233
ag249
ag251
ag242
aS'DB00630'
p693
aS'DB00990'
p694
ag256
ag58
ag60
ag277
ag63
aS'DB00476'
p695
ag667
aS'DB00424'
p696
aS'DB01174'
p697
aS'DB00747'
p698
ag70
aS'DB00884'
p699
ag302
ag307
ag80
ag313
aS'DB00402'
p700
ag24
ag82
ag649
aS'DB01601'
p701
aS'DB00503'
p702
ag268
ag326
ag52
ag183
ag343
ag346
ag351
ag98
ag99
ag101
ag354
ag104
ag357
ag360
ag278
ag376
ag185
ag100
ag389
ag390
aS'DB09241'
p703
aS'DB11071'
p704
aS'DB00395'
p705
ag410
ag121
ag420
aS'DB00248'
p706
aS'DB08826'
p707
ag125
ag469
ag45
ag470
ag128
ag130
ag428
ag500
ag502
aS'DB11150'
p708
ag544
ag550
ag388
ag31
aS'DB01077'
p709
ag393
ag601
ag612
asS'Visual acuity reduced'
p710
(lp711
S'DB00404'
p712
ag54
ag74
aS'DB00460'
p713
ag422
asS'Sleep disorder'
p714
(lp715
g712
aS'DB00030'
p716
ag682
ag13
aS'DB01620'
p717
ag353
ag8
ag242
ag527
ag167
ag170
ag171
ag24
aS'DB00486'
p718
ag190
aS'DB00418'
p719
ag192
ag27
ag196
ag197
ag620
ag217
ag37
ag38
ag16
ag233
aS'DB00950'
p720
ag104
ag234
ag244
ag222
ag73
ag226
ag158
ag642
ag249
ag250
aS'DB00980'
p721
ag251
ag374
ag524
ag145
ag255
ag256
ag342
ag645
ag55
aS'DB00829'
p722
ag646
ag264
aS'DB00231'
p723
ag58
ag267
ag107
ag293
ag272
aS'DB04835'
p724
ag236
aS'DB00897'
p725
aS'DB00289'
p726
ag285
ag288
aS'DB06414'
p727
ag297
ag74
ag100
ag304
ag76
ag78
ag307
ag225
aS'DB08815'
p728
ag310
ag313
ag314
ag700
aS'DB00690'
p729
ag315
aS'DB00972'
p730
ag650
aS'DB01267'
p731
ag486
ag165
aS'DB00714'
p732
ag215
ag123
aS'DB00683'
p733
ag209
ag94
ag169
aS'DB01215'
p734
ag345
ag101
ag354
ag63
ag166
ag713
ag434
aS'DB01222'
p735
aS'DB00862'
p736
ag327
aS'DB06410'
p737
aS'DB00780'
p738
aS'DB00879'
p739
aS'DB08864'
p740
aS'DB14126'
p741
ag637
ag52
ag441
ag292
aS'DB00704'
p742
ag449
ag649
ag194
ag460
ag695
aS'DB01018'
p743
aS'DB00237'
p744
ag133
ag473
ag399
ag129
ag45
ag478
aS'DB06697'
p745
aS'DB06708'
p746
aS'DB01589'
p747
ag485
aS'DB01247'
p748
ag518
ag500
ag303
ag507
aS'DB08900'
p749
aS'DB01037'
p750
aS'DB05271'
p751
ag528
aS'DB11921'
p752
aS'DB00744'
p753
aS'DB09296'
p754
aS'DB09297'
p755
ag702
ag559
aS'DB01083'
p756
ag21
aS'DB05990'
p757
aS'DB00983'
p758
ag591
ag592
ag393
ag601
ag609
aS'DB00915'
p759
aS'DB00191'
p760
ag232
ag6
ag140
asS'Sleep apnea syndrome'
p761
(lp762
S'DB09278'
p763
aS'DB13110'
p764
aS'DB05381'
p765
ag712
ag158
ag184
ag191
ag164
ag219
ag233
ag592
ag642
aS'DB06204'
p766
ag725
ag169
ag307
ag81
ag175
aS'DB01192'
p767
ag13
ag353
ag315
aS'DB00327'
p768
ag646
ag68
ag657
ag186
ag334
aS'DB04946'
p769
ag238
ag176
ag228
aS'DB01277'
p770
ag527
ag121
ag579
ag580
ag393
ag601
ag705
asS'Hemolytic anemia'
p771
(lp772
g6
ag151
ag8
ag154
ag156
ag160
ag24
ag153
ag161
ag171
ag174
ag175
ag176
ag370
ag178
ag14
ag15
ag16
ag17
ag179
ag180
ag182
ag183
ag184
ag185
ag21
ag187
ag23
ag25
ag193
ag637
ag238
ag186
ag169
ag196
ag197
ag201
ag27
ag28
ag203
ag205
ag30
ag13
ag31
ag32
aS'DB01592'
p773
ag33
ag215
ag218
ag35
ag220
aS'DB00652'
p774
ag37
ag38
ag225
ag226
ag245
ag548
ag228
ag40
ag229
ag41
ag104
ag234
ag42
ag241
ag45
ag46
ag244
ag246
ag47
ag48
ag49
ag50
ag249
aS'DB01415'
p775
ag52
ag252
ag253
ag53
ag54
aS'DB00477'
p776
ag259
ag261
ag262
ag57
ag58
ag528
ag59
ag269
ag119
aS'DB00701'
p777
ag274
ag275
ag63
ag279
ag284
ag65
ag66
ag9
ag134
ag290
ag727
ag71
ag72
aS'DB00433'
p778
ag297
aS'DB00224'
p779
ag299
ag74
ag75
ag303
ag77
ag78
ag79
ag304
ag309
ag310
ag80
ag312
ag266
ag70
ag318
ag319
ag320
ag321
ag323
ag326
ag314
ag159
ag88
ag89
ag355
ag520
ag98
ag521
ag523
ag525
ag526
ag90
ag91
ag92
ag242
ag93
ag123
ag94
ag344
ag96
ag97
ag347
ag100
ag352
ag101
ag103
ag105
ag349
ag360
aS'DB01438'
p780
ag366
ag369
ag371
ag372
ag384
ag387
ag109
ag399
ag404
ag405
ag407
ag112
ag114
ag409
ag115
ag412
ag417
ag418
ag420
ag421
ag425
ag118
ag426
ag430
ag432
aS'DB01087'
p781
aS'DB09394'
p782
ag438
ag439
ag440
ag516
ag519
aS'DB11102'
p783
aS'DB01956'
p784
ag286
ag515
ag517
aS'DB13180'
p785
ag522
ag524
ag120
ag450
aS'DB01100'
p786
ag270
aS'DB09324'
p787
ag408
aS'DB09495'
p788
aS'DB09496'
p789
aS'DB11062'
p790
ag125
ag518
ag145
ag126
aS'DB00250'
p791
ag464
ag468
aS'DB14115'
p792
ag130
ag131
ag475
ag129
ag133
ag485
ag486
ag137
ag703
ag487
ag491
ag504
ag139
ag140
ag536
aS'DB08912'
p793
ag537
ag343
ag127
aS'DB06795'
p794
ag551
ag264
aS'DB11714'
p795
ag568
ag578
ag144
aS'DB09222'
p796
aS'DB11300'
p797
aS'DB06186'
p798
ag591
ag597
aS'DB00108'
p799
aS'DB01764'
p800
aS'DB01369'
p801
ag619
aS'DB00049'
p802
ag395
ag629
asS'Myopathy'
p803
(lp804
g13
ag175
aS'DB14681'
p805
ag173
ag86
aS'DB00635'
p806
ag188
ag192
ag662
ag195
ag28
ag202
ag37
ag225
ag47
ag48
ag663
ag75
ag265
ag58
ag266
ag267
ag739
ag741
ag24
ag41
ag63
aS'DB13868'
p807
ag287
ag294
ag385
ag295
aS'DB00687'
p808
ag303
ag77
ag307
ag81
ag293
ag314
ag700
ag650
aS'DB00620'
p809
ag327
ag90
ag185
ag345
ag354
ag434
ag365
ag62
ag107
ag123
ag257
ag65
ag110
aS'DB00202'
p810
ag656
aS'DB00625'
p811
aS'DB00565'
p812
ag740
aS'DB00728'
p813
ag420
aS'DB06283'
p814
ag424
ag115
ag119
ag222
ag272
aS'DB09065'
p815
aS'DB09101'
p816
ag139
ag144
ag133
ag140
ag456
ag692
ag671
aS'DB00459'
p817
ag469
ag460
ag130
ag372
ag237
ag470
ag502
ag513
ag530
ag546
ag752
ag549
ag310
ag702
ag675
ag518
ag145
ag108
ag624
ag620
ag269
ag395
asS'Agranulocytosis'
p818
(lp819
g142
ag149
ag150
ag151
ag153
ag7
ag8
ag154
ag780
aS'DB00576'
p820
ag156
ag13
ag31
ag157
ag242
ag402
ag219
ag160
ag24
ag161
ag162
ag9
aS'DB00937'
p821
ag128
ag167
ag169
aS'DB00928'
p822
ag10
ag171
ag11
ag174
ag175
ag176
ag12
ag370
ag6
ag15
ag16
ag17
ag179
ag180
ag182
ag183
ag186
ag21
ag22
ag188
ag23
ag189
ag155
ag192
ag193
ag194
ag196
ag197
ag26
ag200
ag201
ag460
ag202
ag203
ag204
ag205
ag209
ag210
ag215
ag216
ag34
ag218
ag220
ag774
ag36
ag222
ag223
ag225
ag228
ag40
ag229
ag230
ag42
ag237
ag315
ag238
ag239
ag44
ag275
ag45
ag46
ag245
ag246
ag47
ag158
ag49
ag50
ag51
ag249
ag775
ag52
ag253
ag53
ag54
ag255
ag776
ag257
ag259
ag55
ag261
ag263
aS'DB00794'
p823
ag57
ag528
ag59
ag268
ag269
ag270
aS'DB00623'
p824
ag273
ag61
ag274
ag278
ag63
ag279
aS'DB01233'
p825
ag280
ag281
aS'DB00502'
p826
ag283
ag284
ag285
ag65
ag66
ag287
ag70
aS'DB00549'
p827
ag292
ag71
ag72
ag295
ag778
ag296
ag297
ag299
ag300
ag74
ag100
ag76
ag79
ag304
ag309
ag759
ag728
ag310
ag80
ag312
ag81
ag318
ag319
ag320
ag321
ag731
ag83
ag486
ag84
ag85
ag323
ag325
ag326
ag791
ag86
ag331
ag334
ag88
ag355
aS'DB00643'
p828
ag35
ag91
aS'DB01193'
p829
ag93
ag123
ag337
ag333
ag340
ag343
ag344
ag734
ag96
ag69
aS'DB00607'
p830
ag98
ag99
ag248
ag352
ag102
ag353
ag166
ag354
ag103
ag135
ag187
ag349
ag360
ag363
ag75
ag357
ag365
ag366
ag384
ag108
ag250
ag387
ag391
ag111
ag397
ag787
ag399
aS'DB00771'
p831
ag404
aS'DB00842'
p832
ag112
ag655
aS'DB00593'
p833
aS'DB00259'
p834
ag114
ag409
ag115
ag211
ag411
ag92
ag117
ag417
ag418
ag420
ag423
ag424
ag425
ag118
ag426
ag427
ag430
ag264
ag431
ag432
ag256
ag769
ag438
ag439
ag440
ag89
ag442
ag58
ag444
ag120
ag447
aS'DB04951'
p835
ag786
ag302
ag452
ag454
ag408
ag707
ag788
ag789
ag790
ag125
ag518
ag145
ag126
ag224
ag464
ag466
ag121
aS'DB01627'
p836
ag140
ag470
aS'DB00713'
p837
ag471
ag131
ag475
aS'DB00960'
p838
aS'DB00735'
p839
ag129
ag136
ag485
ag137
ag488
aS'DB06218'
p840
aS'DB11633'
p841
ag500
ag505
ag236
ag138
ag532
ag139
ag536
ag545
ag127
ag546
ag184
ag109
ag565
ag548
ag143
ag133
ag144
ag709
ag522
aS'DB11058'
p842
ag286
ag589
aS'DB01618'
p843
ag322
ag610
ag617
ag623
ag395
asS'Cardiac arrest'
p844
(lp845
g442
ag155
ag667
aS'DB01010'
p846
ag158
ag164
ag301
aS'DB13295'
p847
ag165
ag170
ag14
aS'DB00721'
p848
ag181
ag185
ag188
ag190
aS'DB09009'
p849
ag639
ag24
ag191
ag524
ag660
ag662
ag637
ag195
ag139
ag27
ag460
ag140
ag209
ag210
ag13
ag31
ag768
ag32
ag211
aS'DB00802'
p850
ag640
ag33
ag327
aS'DB00708'
p851
ag71
ag38
ag225
aS'DB01128'
p852
ag145
ag233
ag104
ag42
ag641
ag235
aS'DB00961'
p853
ag169
ag665
ag518
aS'DB14546'
p854
ag241
aS'DB00451'
p855
aS'DB01143'
p856
ag52
ag252
ag374
aS'DB00412'
p857
ag776
ag55
ag56
ag264
ag58
ag528
ag85
ag69
aS'DB00844'
p858
ag824
aS'DB10499'
p859
ag274
ag277
ag280
ag234
ag285
ag70
ag67
aS'DB09085'
p860
ag72
ag778
ag74
ag302
ag78
ag307
ag648
ag759
ag806
ag81
ag82
ag316
ag317
ag470
ag722
ag321
aS'DB00203'
p861
ag268
ag84
ag323
aS'DB09539'
p862
ag732
ag663
ag809
aS'DB00868'
p863
aS'DB00187'
p864
ag355
ag733
ag337
ag183
ag343
ag102
ag101
ag354
ag652
ag135
aS'DB01373'
p865
aS'DB00693'
p866
ag230
aS'DB14078'
p867
ag360
ag86
ag517
ag758
ag34
ag111
aS'DB03166'
p868
ag785
ag522
ag397
ag810
aS'DB01210'
p869
ag750
ag406
ag128
ag657
aS'DB00103'
p870
ag413
ag121
ag117
ag420
ag242
aS'DB09511'
p871
aS'DB00755'
p872
ag428
ag429
ag123
ag539
aS'DB01272'
p873
ag219
ag286
ag659
ag515
ag237
aS'DB01161'
p874
ag449
ag192
ag450
ag661
aS'DB00733'
p875
aS'DB04711'
p876
ag122
aS'DB01400'
p877
aS'DB06215'
p878
ag144
ag133
ag456
ag692
aS'DB09020'
p879
aS'DB00910'
p880
ag671
ag678
ag29
ag792
ag471
ag94
ag130
aS'DB00854'
p881
ag408
ag131
ag290
ag106
ag478
aS'DB00435'
p882
aS'DB08868'
p883
ag481
ag416
aS'DB12091'
p884
ag490
aS'DB00332'
p885
ag841
aS'DB12754'
p886
aS'DB08934'
p887
ag410
ag504
ag505
aS'DB14531'
p888
aS'DB04564'
p889
aS'DB00002'
p890
ag668
ag749
ag669
aS'DB10385'
p891
ag513
aS'DB00597'
p892
ag683
ag685
ag686
aS'DB08947'
p893
aS'DB00552'
p894
ag88
aS'DB01249'
p895
ag672
ag544
aS'DB09133'
p896
ag107
aS'DB09102'
p897
ag547
ag549
ag551
ag310
ag673
aS'DB09135'
p898
aS'DB09027'
p899
aS'DB11595'
p900
ag674
aS'DB00474'
p901
ag141
ag568
ag396
ag574
ag143
ag576
ag577
ag581
ag584
ag487
aS'DB00009'
p902
ag676
aS'DB09156'
p903
ag591
ag592
ag146
ag393
ag601
aS'DB00003'
p904
ag609
aS'DB06290'
p905
ag800
ag801
ag679
ag618
ag542
ag626
ag512
ag75
asS'Interstitial lung disease'
p906
(lp907
g142
ag168
ag19
ag25
ag214
aS'DB00657'
p908
ag221
ag40
ag852
ag233
aS'DB00665'
p909
ag241
ag260
ag60
ag61
ag278
ag288
ag76
ag225
ag81
ag266
ag28
ag82
ag316
ag649
ag268
ag326
ag333
ag91
ag95
ag348
ag106
ag359
ag363
aS'DB04855'
p910
ag357
ag372
aS'DB14524'
p911
ag388
aS'DB06700'
p912
ag390
ag393
ag400
ag206
ag407
ag657
ag425
aS'DB01204'
p913
ag437
ag441
ag192
ag452
ag408
ag459
ag463
ag664
ag130
ag475
ag416
ag483
ag487
ag822
ag493
aS'DB00317'
p914
ag498
ag37
aS'DB09054'
p915
ag510
aS'DB08916'
p916
ag890
ag512
aS'DB11363'
p917
ag369
ag531
ag532
ag533
aS'DB08860'
p918
ag541
ag544
ag550
ag551
ag77
ag556
ag558
ag48
aS'DB01259'
p919
ag564
ag900
ag567
ag795
aS'DB12267'
p920
ag569
ag479
ag574
ag143
ag133
ag577
ag578
ag583
ag265
ag584
ag585
ag586
ag75
ag588
ag590
aS'DB01269'
p921
ag593
ag596
ag434
ag599
ag90
ag677
aS'DB08895'
p922
ag610
ag613
ag618
ag620
ag624
aS'DB09075'
p923
ag629
ag630
asS'Serotonin syndrome'
p924
(lp925
g527
ag189
ag192
ag27
ag39
ag104
ag208
ag255
ag109
ag766
ag58
ag695
ag13
ag63
ag647
ag295
ag308
ag81
ag649
ag650
ag328
ag281
ag101
ag651
ag21
ag356
ag912
ag696
ag687
ag703
ag704
ag656
ag26
ag254
ag637
ag296
ag292
ag358
ag449
ag442
ag644
ag354
ag454
aS'DB06684'
p926
ag428
ag145
ag68
ag166
aS'DB04871'
p927
aS'DB00377'
p928
ag767
aS'DB01576'
p929
aS'DB00182'
p930
ag31
ag165
ag69
ag774
aS'DB00611'
p931
ag750
ag670
ag164
ag52
ag768
ag881
ag327
ag169
ag858
ag851
ag850
ag175
ag370
aS'DB09048'
p932
aS'DB01356'
p933
ag191
aS'DB06701'
p934
ag6
ag134
ag186
ag334
ag238
ag591
aS'DB01255'
p935
aS'DB06654'
p936
ag742
ag705
ag609
ag825
asS'Deep vein thrombosis'
p937
(lp938
S'DB00783'
p939
ag177
ag19
ag181
ag183
ag184
aS'DB00304'
p940
ag232
ag233
ag641
ag51
ag52
ag249
aS'DB05351'
p941
ag264
ag21
ag202
ag277
ag283
ag226
aS'DB00481'
p942
ag292
ag295
ag73
aS'DB01395'
p943
ag303
aS'DB09318'
p944
ag307
ag82
aS'DB09317'
p945
aS'DB00367'
p946
ag649
ag199
ag701
ag702
aS'DB13954'
p947
aS'DB00957'
p948
ag327
ag333
ag592
ag336
aS'DB09123'
p949
aS'DB13956'
p950
ag95
ag345
ag351
aS'DB01357'
p951
ag365
ag372
aS'DB00294'
p952
aS'DB09389'
p953
aS'DB00302'
p954
ag109
ag773
ag400
ag406
ag121
ag420
aS'DB11309'
p955
aS'DB06710'
p956
ag902
aS'DB06401'
p957
ag437
ag140
ag58
aS'DB06825'
p958
ag379
ag408
ag620
ag133
ag469
aS'DB06626'
p959
aS'DB09107'
p960
ag476
ag132
ag416
aS'DB14570'
p961
ag493
ag496
ag502
aS'DB00181'
p962
aS'DB11256'
p963
ag512
ag894
aS'DB00014'
p964
ag534
ag535
aS'DB00225'
p965
aS'DB00655'
p966
ag544
ag545
ag549
ag551
aS'DB04938'
p967
aS'DB00012'
p968
aS'DB13151'
p969
aS'DB09559'
p970
ag396
aS'DB06713'
p971
ag574
aS'DB06212'
p972
ag143
ag577
ag583
ag586
aS'DB00666'
p973
ag541
aS'DB13896'
p974
ag625
aS'DB06237'
p975
asS'Anaphylactic reaction'
p976
(lp977
g142
ag865
aS'DB14240'
p978
aS'DB14239'
p979
aS'DB01323'
p980
aS'DB01992'
p981
aS'DB14128'
p982
ag244
ag716
ag720
ag6
aS'DB00878'
p983
aS'DB11091'
p984
aS'DB00455'
p985
aS'DB11073'
p986
aS'DB09526'
p987
ag150
ag152
ag7
ag8
ag154
ag157
ag379
ag161
ag164
aS'DB00066'
p988
aS'DB09153'
p989
aS'DB00521'
p990
ag527
ag683
ag685
ag686
ag128
ag167
ag168
ag170
ag171
ag24
ag173
ag50
ag644
ag178
ag15
ag16
ag17
ag18
ag179
ag806
ag939
ag181
ag930
ag929
ag182
aS'DB00423'
p991
ag21
ag187
ag23
ag14
ag192
ag885
ag662
ag193
ag374
aS'DB14211'
p992
ag198
ag201
ag27
ag28
ag29
ag203
ag205
ag669
ag397
ag311
ag211
ag850
ag640
ag213
ag214
ag215
ag327
ag218
aS'DB09488'
p993
ag176
ag851
ag123
ag220
ag36
ag37
ag222
ag223
ag71
ag38
aS'DB00136'
p994
ag39
aS'DB00804'
p995
ag40
aS'DB10403'
p996
aS'DB10404'
p997
aS'DB10351'
p998
aS'DB10370'
p999
aS'DB10394'
p1000
aS'DB10366'
p1001
aS'DB10446'
p1002
aS'DB10915'
p1003
ag229
ag231
ag524
ag145
aS'DB00035'
p1004
ag104
ag42
ag43
ag442
ag52
ag315
ag665
ag275
ag667
aS'DB01081'
p1005
ag518
ag854
aS'DB10509'
p1006
aS'DB10519'
p1007
aS'DB10543'
p1008
aS'DB10610'
p1009
aS'DB10528'
p1010
aS'DB10542'
p1011
aS'DB10537'
p1012
aS'DB10561'
p1013
aS'DB10415'
p1014
aS'DB10918'
p1015
aS'DB10459'
p1016
aS'DB10381'
p1017
aS'DB10484'
p1018
aS'DB10497'
p1019
ag891
aS'DB10491'
p1020
aS'DB10872'
p1021
aS'DB10765'
p1022
aS'DB10871'
p1023
aS'DB10387'
p1024
aS'DB10386'
p1025
aS'DB10768'
p1026
aS'DB10909'
p1027
aS'DB10921'
p1028
aS'DB10493'
p1029
aS'DB10762'
p1030
aS'DB10390'
p1031
aS'DB10372'
p1032
aS'DB10767'
p1033
aS'DB10816'
p1034
aS'DB10760'
p1035
aS'DB10756'
p1036
aS'DB10391'
p1037
aS'DB10928'
p1038
aS'DB10368'
p1039
aS'DB10479'
p1040
aS'DB10838'
p1041
aS'DB10929'
p1042
aS'DB10468'
p1043
aS'DB10910'
p1044
aS'DB10764'
p1045
aS'DB10454'
p1046
aS'DB10859'
p1047
aS'DB10382'
p1048
aS'DB10359'
p1049
aS'DB10901'
p1050
aS'DB10360'
p1051
aS'DB10900'
p1052
aS'DB10388'
p1053
aS'DB10471'
p1054
aS'DB10755'
p1055
aS'DB10763'
p1056
aS'DB10356'
p1057
aS'DB10879'
p1058
aS'DB10377'
p1059
aS'DB10837'
p1060
aS'DB10836'
p1061
aS'DB10494'
p1062
aS'DB10489'
p1063
aS'DB10395'
p1064
aS'DB10858'
p1065
aS'DB10719'
p1066
aS'DB10349'
p1067
aS'DB10714'
p1068
aS'DB10353'
p1069
aS'DB10713'
p1070
aS'DB10717'
p1071
aS'DB10365'
p1072
aS'DB10498'
p1073
aS'DB10860'
p1074
aS'DB10357'
p1075
aS'DB10975'
p1076
aS'DB10525'
p1077
aS'DB10408'
p1078
ag241
ag45
ag46
aS'DB10423'
p1079
aS'DB10840'
p1080
aS'DB10424'
p1081
aS'DB10694'
p1082
aS'DB10425'
p1083
aS'DB10449'
p1084
aS'DB10429'
p1085
aS'DB10807'
p1086
aS'DB10870'
p1087
aS'DB10842'
p1088
aS'DB10701'
p1089
aS'DB10442'
p1090
aS'DB10447'
p1091
aS'DB10873'
p1092
aS'DB10846'
p1093
aS'DB10826'
p1094
aS'DB10828'
p1095
aS'DB10704'
p1096
aS'DB10834'
p1097
aS'DB10443'
p1098
aS'DB10835'
p1099
aS'DB10444'
p1100
aS'DB10500'
p1101
aS'DB10501'
p1102
aS'DB10502'
p1103
aS'DB10503'
p1104
aS'DB10504'
p1105
aS'DB10505'
p1106
aS'DB10506'
p1107
aS'DB14709'
p1108
aS'DB10640'
p1109
aS'DB10919'
p1110
aS'DB10663'
p1111
aS'DB10628'
p1112
aS'DB10629'
p1113
aS'DB10510'
p1114
aS'DB10511'
p1115
aS'DB10642'
p1116
aS'DB10512'
p1117
aS'DB10513'
p1118
aS'DB10514'
p1119
aS'DB10515'
p1120
aS'DB10653'
p1121
aS'DB10643'
p1122
aS'DB10517'
p1123
aS'DB10518'
p1124
aS'DB10520'
p1125
aS'DB10672'
p1126
aS'DB10523'
p1127
aS'DB10875'
p1128
aS'DB10572'
p1129
aS'DB10631'
p1130
aS'DB10527'
p1131
aS'DB10864'
p1132
aS'DB10644'
p1133
aS'DB10532'
p1134
aS'DB10344'
p1135
aS'DB10533'
p1136
aS'DB10534'
p1137
aS'DB10556'
p1138
aS'DB10646'
p1139
aS'DB10654'
p1140
aS'DB10536'
p1141
aS'DB10687'
p1142
aS'DB10639'
p1143
aS'DB10670'
p1144
aS'DB10538'
p1145
aS'DB10539'
p1146
aS'DB10540'
p1147
aS'DB10635'
p1148
aS'DB10884'
p1149
aS'DB10830'
p1150
aS'DB10885'
p1151
aS'DB10545'
p1152
aS'DB10676'
p1153
aS'DB10548'
p1154
aS'DB10549'
p1155
aS'DB10678'
p1156
aS'DB10647'
p1157
aS'DB10551'
p1158
aS'DB10552'
p1159
aS'DB10553'
p1160
aS'DB10554'
p1161
aS'DB10555'
p1162
aS'DB10558'
p1163
aS'DB10560'
p1164
aS'DB10562'
p1165
aS'DB10892'
p1166
aS'DB10636'
p1167
aS'DB10566'
p1168
aS'DB10568'
p1169
aS'DB10683'
p1170
aS'DB10569'
p1171
aS'DB10913'
p1172
aS'DB10571'
p1173
aS'DB10508'
p1174
aS'DB10907'
p1175
aS'DB10648'
p1176
aS'DB10573'
p1177
aS'DB10652'
p1178
aS'DB10576'
p1179
aS'DB10578'
p1180
aS'DB10579'
p1181
aS'DB10720'
p1182
aS'DB10734'
p1183
aS'DB10354'
p1184
aS'DB10475'
p1185
aS'DB10735'
p1186
aS'DB10369'
p1187
aS'DB10452'
p1188
aS'DB10722'
p1189
aS'DB10757'
p1190
aS'DB10833'
p1191
aS'DB10352'
p1192
aS'DB10458'
p1193
aS'DB10832'
p1194
aS'DB10831'
p1195
aS'DB10724'
p1196
aS'DB10736'
p1197
aS'DB10911'
p1198
aS'DB10882'
p1199
aS'DB10883'
p1200
aS'DB10380'
p1201
aS'DB10364'
p1202
aS'DB10926'
p1203
aS'DB10485'
p1204
aS'DB10472'
p1205
aS'DB10743'
p1206
aS'DB10363'
p1207
aS'DB10751'
p1208
aS'DB10470'
p1209
aS'DB10350'
p1210
aS'DB10348'
p1211
aS'DB10723'
p1212
aS'DB10815'
p1213
aS'DB10397'
p1214
aS'DB10396'
p1215
aS'DB10496'
p1216
aS'DB10460'
p1217
aS'DB10727'
p1218
aS'DB10731'
p1219
aS'DB10730'
p1220
aS'DB10728'
p1221
aS'DB10917'
p1222
aS'DB10461'
p1223
aS'DB10914'
p1224
aS'DB10488'
p1225
aS'DB10495'
p1226
aS'DB10478'
p1227
aS'DB10480'
p1228
aS'DB10373'
p1229
aS'DB10378'
p1230
aS'DB10912'
p1231
aS'DB10894'
p1232
aS'DB10487'
p1233
aS'DB10747'
p1234
aS'DB10924'
p1235
aS'DB10746'
p1236
aS'DB10923'
p1237
aS'DB10896'
p1238
aS'DB10486'
p1239
aS'DB10895'
p1240
aS'DB10744'
p1241
aS'DB10925'
p1242
aS'DB10392'
p1243
aS'DB10393'
p1244
aS'DB10383'
p1245
aS'DB10463'
p1246
aS'DB10750'
p1247
aS'DB10456'
p1248
aS'DB10371'
p1249
aS'DB10374'
p1250
aS'DB10376'
p1251
aS'DB10740'
p1252
aS'DB10889'
p1253
aS'DB10738'
p1254
aS'DB10886'
p1255
aS'DB10887'
p1256
aS'DB10481'
p1257
aS'DB10888'
p1258
aS'DB10737'
p1259
aS'DB10375'
p1260
aS'DB10753'
p1261
aS'DB10398'
p1262
aS'DB10483'
p1263
aS'DB10482'
p1264
aS'DB10725'
p1265
aS'DB10467'
p1266
aS'DB10361'
p1267
aS'DB10469'
p1268
aS'DB10362'
p1269
ag678
ag246
aS'DB10457'
p1270
aS'DB10897'
p1271
aS'DB10580'
p1272
ag226
ag33
aS'DB03255'
p1273
aS'DB10451'
p1274
aS'DB10535'
p1275
aS'DB10667'
p1276
aS'DB10379'
p1277
aS'DB10389'
p1278
aS'DB10759'
p1279
aS'DB10968'
p1280
aS'DB10766'
p1281
ag859
ag248
aS'DB10531'
p1282
aS'DB10617'
p1283
aS'DB10541'
p1284
aS'DB10618'
p1285
aS'DB10550'
p1286
aS'DB10620'
p1287
aS'DB10623'
p1288
aS'DB10567'
p1289
aS'DB10625'
p1290
aS'DB10626'
p1291
aS'DB10574'
p1292
aS'DB10715'
p1293
aS'DB10718'
p1294
aS'DB10691'
p1295
aS'DB10418'
p1296
aS'DB10688'
p1297
aS'DB10721'
p1298
aS'DB10729'
p1299
aS'DB10733'
p1300
aS'DB10749'
p1301
aS'DB10745'
p1302
aS'DB10748'
p1303
aS'DB10464'
p1304
aS'DB10739'
p1305
aS'DB10741'
p1306
aS'DB10742'
p1307
aS'DB10474'
p1308
aS'DB10752'
p1309
aS'DB10732'
p1310
aS'DB10450'
p1311
aS'DB10695'
p1312
aS'DB10706'
p1313
aS'DB10705'
p1314
aS'DB10516'
p1315
aS'DB10547'
p1316
aS'DB10662'
p1317
aS'DB10641'
p1318
aS'DB10659'
p1319
aS'DB10675'
p1320
aS'DB10655'
p1321
aS'DB10657'
p1322
aS'DB10656'
p1323
aS'DB10660'
p1324
aS'DB10658'
p1325
aS'DB10984'
p1326
aS'DB10559'
p1327
aS'DB10681'
p1328
aS'DB10651'
p1329
aS'DB10570'
p1330
aS'DB10637'
p1331
aS'DB10664'
p1332
aS'DB10679'
p1333
aS'DB14694'
p1334
aS'DB10530'
p1335
aS'DB10612'
p1336
ag48
ag49
ag642
ag51
ag856
ag342
ag250
ag251
ag775
ag721
ag13
ag253
aS'DB00356'
p1337
ag53
ag54
ag254
ag857
ag256
ag386
aS'DB00558'
p1338
ag257
ag663
ag645
ag259
ag55
ag646
ag56
ag261
aS'DB06282'
p1339
ag941
ag262
ag57
ag723
ag75
ag265
ag180
ag266
ag59
ag119
ag60
ag270
ag85
ag293
ag272
ag273
aS'DB00025'
p1340
ag63
ag64
ag514
ag725
ag234
ag282
ag283
ag695
ag285
aS'DB01217'
p1341
ag65
ag66
ag696
ag697
ag698
ag860
ag288
aS'DB01173'
p1342
ag290
ag291
ag72
ag297
ag299
ag73
ag300
ag301
ag74
ag100
ag304
ag944
ag76
ag77
ag78
ag943
ag736
ag726
ag648
ag309
ag759
ag312
ag81
aS'DB00764'
p1343
ag314
ag729
ag70
ag945
aS'DB00967'
p1344
ag318
ag319
ag946
ag320
ag321
ag731
ag83
ag947
ag84
ag326
ag165
ag862
ag88
ag328
ag329
aS'DB01261'
p1345
aS'DB00047'
p1346
ag809
ag335
aS'DB10962'
p1347
aS'DB10582'
p1348
aS'DB10987'
p1349
aS'DB14758'
p1350
aS'DB10961'
p1351
aS'DB10949'
p1352
aS'DB10988'
p1353
aS'DB10891'
p1354
aS'DB10963'
p1355
aS'DB10950'
p1356
aS'DB10986'
p1357
aS'DB10981'
p1358
aS'DB13895'
p1359
aS'DB10970'
p1360
aS'DB10985'
p1361
aS'DB13152'
p1362
ag358
ag90
ag91
ag93
ag310
ag336
aS'DB06695'
p1363
ag337
ag338
ag339
aS'DB10927'
p1364
ag344
ag734
ag96
aS'DB01306'
p1365
ag97
ag774
ag830
ag238
ag186
ag101
ag102
ag651
aS'DB01339'
p1366
ag652
aS'DB00200'
p1367
ag849
ag639
ag135
ag735
ag700
ag356
aS'DB01307'
p1368
ag31
ag169
aS'DB00198'
p1369
ag866
ag357
ag106
ag359
ag349
aS'DB00046'
p1370
ag80
ag468
ag239
aS'DB01220'
p1371
ag366
ag368
ag935
ag86
ag375
ag376
ag377
ag378
ag380
ag381
ag382
aS'DB09136'
p1372
ag384
aS'DB11065'
p1373
aS'DB13147'
p1374
aS'DB11066'
p1375
aS'DB01062'
p1376
ag387
ag758
ag398
aS'DB01131'
p1377
aS'DB01276'
p1378
aS'DB01591'
p1379
ag388
aS'DB00210'
p1380
ag109
ag68
aS'DB01221'
p1381
ag392
ag393
ag789
aS'DB09321'
p1382
ag110
ag396
aS'DB01428'
p1383
aS'DB11315'
p1384
ag691
ag810
ag705
ag352
ag405
ag407
ag237
ag140
ag470
ag548
ag113
ag766
aS'DB11166'
p1385
aS'DB01563'
p1386
aS'DB06706'
p1387
ag657
ag870
ag413
ag416
ag812
ag191
ag813
ag331
aS'DB08898'
p1388
ag417
ag418
aS'DB09208'
p1389
ag419
ag955
ag956
ag424
aS'DB00209'
p1390
ag425
ag913
ag426
ag902
ag647
ag258
aS'DB00364'
p1391
ag212
ag343
aS'DB01036'
p1392
ag650
aS'DB06402'
p1393
ag837
ag437
aS'DB09033'
p1394
ag873
ag440
ag89
ag286
aS'DB06791'
p1395
ag443
aS'DB00251'
p1396
ag788
aS'DB09535'
p1397
ag659
ag445
aS'DB00410'
p1398
ag448
ag742
ag449
aS'DB00089'
p1399
aS'DB06151'
p1400
aS'DB13700'
p1401
ag408
ag768
ag124
ag877
ag420
aS'DB01309'
p1402
ag878
ag133
ag456
ag692
ag144
ag139
ag847
ag125
ag879
aS'DB08882'
p1403
ag458
ag605
ag459
aS'DB09397'
p1404
ag460
ag730
ag463
ag322
ag334
ag744
ag464
aS'DB11095'
p1405
ag127
ag671
ag660
ag465
ag864
ag325
ag836
ag177
ag268
aS'DB14227'
p1406
ag792
ag235
aS'DB00591'
p1407
ag872
ag10
ag131
ag934
ag474
aS'DB06196'
p1408
ag960
aS'DB06261'
p1409
aS'DB00496'
p1410
ag719
ag477
ag129
ag132
ag482
ag745
ag746
aS'DB01271'
p1411
ag770
ag747
ag484
ag485
ag486
ag120
ag492
ag703
ag488
ag489
aS'DB00782'
p1412
ag126
ag737
aS'DB01409'
p1413
ag491
ag841
aS'DB06441'
p1414
aS'DB06699'
p1415
ag500
ag501
aS'DB13146'
p1416
aS'DB00360'
p1417
aS'DB00935'
p1418
aS'DB00006'
p1419
ag502
ag503
aS'DB11074'
p1420
ag504
ag505
aS'DB09228'
p1421
ag928
ag767
ag684
aS'DB11148'
p1422
ag915
ag510
ag511
ag520
ag98
ag521
ag523
ag525
ag526
ag769
ag963
ag890
ag668
ag455
ag828
ag513
ag892
aS'DB11572'
p1423
ag515
ag517
ag522
ag516
ag519
ag332
ag138
aS'DB01044'
p1424
ag931
ag529
aS'DB06655'
p1425
ag670
ag69
ag532
ag964
ag533
ag965
aS'DB06203'
p1426
ag536
aS'DB09264'
p1427
ag881
ag538
ag539
aS'DB00082'
p1428
aS'DB01337'
p1429
ag540
ag242
ag932
ag895
ag966
ag672
ag910
aS'DB01257'
p1430
ag542
ag298
ag543
ag189
ag884
aS'DB06262'
p1431
ag752
ag263
aS'DB00019'
p1432
ag796
ag797
aS'DB01111'
p1433
ag553
aS'DB00917'
p1434
ag555
ag557
aS'DB01501'
p1435
ag702
ag559
ag896
aS'DB04895'
p1436
ag561
aS'DB00083'
p1437
ag968
ag919
ag565
aS'DB00847'
p1438
ag627
ag674
ag901
aS'DB13148'
p1439
ag333
ag224
ag568
ag569
ag969
ag479
ag570
aS'DB06681'
p1440
ag656
ag952
ag571
ag572
ag575
ag756
ag159
ag765
ag143
aS'DB06643'
p1441
ag577
ag578
ag579
aS'DB01274'
p1442
ag580
ag582
aS'DB00050'
p1443
aS'DB08897'
p1444
aS'DB01110'
p1445
aS'DB01281'
p1446
ag586
ag676
aS'DB00337'
p1447
aS'DB08879'
p1448
ag589
ag590
aS'DB00059'
p1449
ag591
aS'DB06292'
p1450
aS'DB09043'
p1451
ag146
aS'DB05311'
p1452
ag596
aS'DB11180'
p1453
ag948
ag688
ag601
ag602
ag799
ag373
ag603
aS'DB12243'
p1454
aS'DB09163'
p1455
ag904
aS'DB06285'
p1456
ag609
ag610
ag612
ag613
aS'DB13883'
p1457
aS'DB01226'
p1458
ag614
aS'DB08881'
p1459
ag617
ag679
ag618
ag619
ag802
ag874
aS'DB06637'
p1460
ag450
ag875
ag269
ag395
aS'DB05013'
p1461
aS'DB06614'
p1462
aS'DB05679'
p1463
ag630
asS'Cerebral infarction'
p1464
(lp1465
g184
ag188
ag51
ag264
ag1341
ag295
ag307
ag310
ag82
ag701
ag702
ag268
ag38
ag215
ag123
ag652
ag11
ag78
ag954
ag428
ag429
ag432
ag436
ag648
ag943
ag939
ag24
ag94
ag237
ag882
ag416
ag626
ag47
ag535
ag550
ag551
ag674
ag1442
ag902
ag903
ag592
aS'DB00015'
p1466
ag609
ag542
ag625
asS'Hyperlipidemia'
p1467
(lp1468
g462
ag170
ag171
ag24
ag177
ag18
ag19
ag184
ag192
ag199
ag211
ag319
ag940
ag939
ag232
ag665
ag47
ag256
ag258
ag646
ag941
ag264
ag946
ag277
aS'DB00820'
p1469
ag58
ag267
ag272
ag514
ag283
ag695
ag289
ag293
ag295
ag300
ag943
ag302
ag303
ag76
ag307
ag310
ag81
ag313
ag700
ag82
ag322
ag268
ag862
ag948
ag332
ag592
ag335
ag215
ag123
ag953
ag209
ag95
ag351
ag101
ag102
ag951
ag361
ag75
ag349
ag952
ag736
ag773
ag397
ag861
ag160
ag655
ag119
ag314
ag140
ag443
ag292
ag379
ag1403
ag548
ag465
ag94
ag493
ag167
ag494
ag495
ag507
ag512
ag515
ag516
ag517
ag518
ag519
ag520
ag98
ag521
ag522
ag523
ag524
ag525
ag526
ag145
ag544
ag922
ag550
ag551
ag559
ag333
ag143
ag133
ag1442
ag586
ag757
ag1449
ag612
ag620
ag628
ag975
asS'Pneumonia'
p1470
(lp1471
g6
ag163
ag822
ag177
ag14
ag18
ag389
ag181
ag184
ag21
ag188
ag23
ag190
ag24
ag192
ag195
ag196
ag197
ag27
ag202
ag204
ag206
ag32
ag620
ag33
ag716
ag214
ag216
ag217
ag123
ag219
ag221
ag222
ag225
ag226
ag39
ag662
ag852
ag128
ag232
ag233
ag315
ag909
ag45
ag46
ag242
ag244
ag642
ag51
ag251
ag53
ag54
ag776
ag256
ag386
ag342
ag645
ag258
ag646
ag264
ag277
ag31
ag528
ag739
ag741
ag41
ag824
ag82
ag272
ag724
ag63
ag281
ag826
ag283
ag805
ag292
ag527
ag942
ag289
ag290
ag293
ag295
ag169
ag778
ag1447
ag300
ag302
ag303
ag76
ag825
ag307
ag885
ag759
ag728
ag310
ag80
aS'DB01410'
p1472
ag311
ag81
ag316
ag321
ag701
ag702
ag731
ag268
ag175
ag862
ag732
ag327
ag314
ag331
ag333
ag87
ag88
ag355
ag215
ag95
ag340
ag346
ag347
aS'DB00376'
p1473
ag351
ag101
ag353
ag354
ag104
ag356
ag1369
ag106
ag360
ag361
ag713
ag1371
ag357
ag369
ag592
ag390
ag393
ag735
ag16
ag397
ag398
ag396
ag399
ag407
ag410
ag211
ag657
ag870
ag414
ag157
ag415
ag121
ag740
ag420
ag811
ag913
ag871
ag115
ag872
ag198
ag767
ag518
ag145
aS'DB00180'
p1474
ag769
ag437
ag873
ag140
ag91
ag286
ag58
ag443
ag444
ag445
ag742
ag815
ag816
ag786
ag194
ag939
ag408
ag707
ag139
ag144
ag133
ag456
ag457
ag278
ag126
ag462
ag880
ag664
ag469
ag470
ag792
aS'DB06775'
p1475
ag471
ag722
ag94
ag130
ag474
ag237
ag476
ag666
ag129
ag416
ag132
ag883
ag745
ag746
ag1411
ag365
ag487
ag490
ag1413
ag492
ag493
ag494
ag495
ag332
ag496
ag501
ag502
ag505
ag451
ag915
ag508
ag510
ag962
ag916
ag512
ag894
ag255
ag529
ag531
ag964
ag533
ag534
ag535
ag413
aS'DB05039'
p1476
ag1427
ag1430
ag544
aS'DB00349'
p1477
ag545
ag127
ag922
ag550
ag551
aS'DB00053'
p1478
ag1407
ag554
ag388
ag555
ag559
ag453
aS'DB05316'
p1479
ag1437
ag563
ag900
ag567
ag920
aS'DB01080'
p1480
ag574
ag142
ag143
aS'DB06168'
p1481
ag1441
ag577
ag578
ag580
ag584
ag675
ag1446
ag586
aS'DB09113'
p1482
ag100
ag522
ag842
ag1448
ag589
ag461
ag590
ag593
ag1451
ag146
ag594
aS'DB09078'
p1483
ag596
ag843
ag598
ag599
ag600
ag601
ag799
ag603
ag604
ag606
ag677
aS'DB08899'
p1484
ag904
ag1456
ag609
aS'DB00872'
p1485
ag610
ag612
ag758
ag615
ag616
ag619
ag68
ag621
ag622
ag624
ag542
ag626
ag450
ag923
aS'DB00385'
p1486
ag1463
ag630
ag632
asS'Tardive dyskinesia'
p1487
(lp1488
g192
ag637
ag194
ag208
ag222
ag315
ag251
ag1473
ag255
ag776
ag264
ag528
ag824
ag825
ag826
ag283
ag292
ag295
ag778
ag300
ag728
ag81
ag321
ag731
ag331
ag340
ag356
ag109
ag750
ag121
ag769
ag58
ag444
ag786
ag471
ag666
ag522
ag842
ag843
asS'Delirium'
p1489
(lp1490
g158
ag219
ag164
aS'DB00258'
p1491
ag370
ag188
ag189
ag190
ag719
ag192
ag27
ag206
aS'DB01205'
p1492
ag225
ag39
ag232
ag233
ag42
ag235
ag236
ag237
ag665
ag247
ag249
ag251
ag13
ag52
ag255
ag1338
ag109
ag264
ag865
ag175
ag58
ag49
ag50
ag277
ag63
ag281
ag282
ag283
ag287
ag667
ag696
ag697
ag698
ag295
ag169
ag300
ag302
ag307
ag308
ag759
ag806
ag81
aS'DB00628'
p1493
ag649
ag82
ag326
ag732
ag517
ag327
ag733
ag345
ag69
ag774
ag351
ag353
ag354
ag1369
ag357
ag442
ag364
ag194
ag750
ag705
ag657
ag738
ag121
ag420
ag26
aS'DB11181'
p1494
ag637
ag424
ag1390
ag995
ag695
ag769
ag296
ag292
ag197
ag659
ag358
ag455
ag449
ag644
aS'DB01364'
p1495
ag661
ag454
ag408
ag456
ag1379
ag518
ag145
ag527
ag880
ag744
ag328
ag881
ag399
ag926
ag478
ag703
ag166
ag841
ag504
ag928
ag929
ag930
ag912
ag230
ag751
ag528
ag1427
ag208
aS'DB00312'
p1496
ag932
ag933
ag543
ag1477
ag1431
ag875
ag901
aS'DB01351'
p1497
ag479
ag1480
ag574
ag142
ag6
ag742
aS'DB08883'
p1498
ag935
ag936
ag393
ag601
ag133
aS'DB00470'
p1499
ag331
ag1462
ag1376
asS'Hemorrhage'
p1500
(lp1501
g145
ag99
ag980
aS'DB00727'
p1502
aS'DB13195'
p1503
aS'DB14256'
p1504
ag979
ag13
ag186
ag684
ag6
aS'DB01294'
p1505
aS'DB11086'
p1506
ag353
aS'DB11088'
p1507
aS'DB11579'
p1508
ag842
ag691
aS'DB08604'
p1509
ag678
aS'DB09345'
p1510
ag279
ag21
ag175
ag689
ag986
ag1445
aS'DB11057'
p1511
ag683
ag131
ag144
ag133
ag140
ag685
ag686
ag605
ag176
ag716
ag687
ag688
aS'DB03852'
p1512
aS'DB02513'
p1513
ag374
ag517
ag376
aS'DB14552'
p1514
aS'DB11089'
p1515
ag379
ag886
ag773
ag380
ag381
ag382
ag448
ag1382
ag984
aS'DB12793'
p1516
aS'DB01296'
p1517
ag690
aS'DB11125'
p1518
aS'DB00645'
p1519
ag639
aS'DB11100'
p1520
ag692
ag591
aS'DB01185'
p1521
ag149
ag153
ag7
ag805
aS'DB09407'
p1522
aS'DB00761'
p1523
aS'DB09395'
p1524
ag989
ag161
ag168
ag170
ag10
ag173
ag177
aS'DB13169'
p1525
aS'DB00974'
p1526
ag86
ag15
ag16
ag17
ag18
ag179
aS'DB00855'
p1527
ag939
ag19
ag181
ag20
ag182
ag183
ag184
ag238
ag22
ag188
ag23
ag189
ag849
ag192
ag25
ag620
ag662
ag193
ag169
ag638
ag198
ag199
ag201
ag27
ag164
ag28
ag202
ag29
ag203
ag204
ag206
ag208
ag211
aS'DB00992'
p1528
ag212
ag214
ag215
ag216
ag217
ag218
ag908
ag851
ag220
ag36
ag37
ag221
ag222
ag806
ag39
ag227
ag940
ag232
ag104
ag42
ag235
ag315
ag665
ag241
ag946
ag73
ag246
ag247
ag48
ag51
ag249
ag251
ag52
ag775
ag252
ag45
ag253
ag53
ag54
ag693
ag256
ag1338
ag257
ag663
ag260
ag55
ag261
ag109
ag263
ag823
ag31
ag1469
ag75
ag265
ag58
ag237
ag267
ag59
ag60
ag695
aS'DB01432'
p1529
ag777
ag273
ag61
ag274
ag277
ag278
ag63
ag514
ag280
ag283
ag647
ag49
ag50
ag375
aS'DB09130'
p1530
ag377
aS'DB00893'
p1531
aS'DB11135'
p1532
aS'DB01593'
p1533
ag865
aS'DB03756'
p1534
aS'DB00159'
p1535
aS'DB14483'
p1536
aS'DB01377'
p1537
ag524
ag67
ag288
ag226
ag289
ag290
ag827
ag699
aS'DB11312'
p1538
ag494
aS'DB14532'
p1539
ag779
aS'DB01264'
p1540
ag298
ag299
ag301
ag943
ag808
ag302
ag303
ag944
ag76
ag966
ag956
ag306
aS'DB00724'
p1541
aS'DB00375'
p1542
ag308
ag225
ag80
aS'DB01179'
p1543
ag81
ag1342
ag1398
ag82
ag316
ag945
ag318
ag705
ag649
ag701
ag702
ag650
ag83
ag268
ag947
ag326
ag88
ag592
ag948
ag327
ag328
aS'DB00930'
p1544
ag333
ag809
ag90
aS'DB01177'
p1545
ag123
ag310
ag1363
ag953
ag209
ag949
ag950
ag341
ag342
ag343
ag259
aS'DB11134'
p1546
ag346
ag96
ag97
ag313
ag348
ag350
ag270
ag77
ag351
ag98
ag100
ag101
ag651
ag103
ag652
ag356
aS'DB00963'
p1547
ag951
ag106
ag359
ag360
ag361
ag713
ag363
ag11
ag365
ag369
ag370
ag372
ag373
ag952
aS'DB01072'
p1548
ag1378
ag912
aS'DB03017'
p1549
ag736
ag389
ag392
ag393
ag735
ag396
ag868
ag785
ag522
ag1384
ag196
ag399
ag197
ag400
ag888
ag407
ag861
aS'DB06243'
p1550
ag409
ag116
ag656
ag1385
ag657
ag601
ag411
ag738
ag415
ag416
aS'DB00400'
p1551
aS'DB01266'
p1552
aS'DB08869'
p1553
ag658
ag518
ag539
ag423
ag637
aS'DB01783'
p1554
ag425
ag913
ag871
ag872
ag426
ag428
ag429
ag902
ag432
ag436
aS'DB08816'
p1555
ag441
ag292
ag443
ag445
ag446
ag660
ag120
ag447
aS'DB14098'
p1556
ag963
aS'DB14513'
p1557
ag988
ag661
ag451
ag1401
ag408
ag481
aS'DB06663'
p1558
ag139
ag456
ag125
ag458
ag126
ag461
ag462
ag463
ag464
ag1405
ag127
ag128
ag671
ag191
ag467
ag24
ag115
ag469
aS'DB03619'
p1559
ag129
ag94
ag942
ag130
ag959
ag474
ag960
ag475
ag817
ag926
aS'DB00969'
p1560
aS'DB11231'
p1561
ag478
ag479
ag882
ag482
ag134
ag286
ag483
ag770
ag335
ag484
ag137
ag488
ag626
ag961
ag470
ag822
ag490
ag748
ag492
ag46
ag1371
ag498
ag499
ag1414
ag500
ag501
ag1419
ag502
aS'DB06372'
p1562
ag506
ag509
ag510
ag47
ag414
ag358
ag893
ag917
ag138
ag1425
ag670
ag964
ag534
ag535
aS'DB00583'
p1563
ag793
ag537
ag105
ag141
ag165
ag895
ag672
ag668
ag544
ag815
ag645
ag549
ag550
ag551
ag552
ag553
ag1434
ag264
ag875
ag554
ag667
ag708
ag754
ag755
aS'DB09183'
p1564
ag555
ag556
ag898
aS'DB00964'
p1565
ag1437
ag968
ag564
ag565
ag1438
ag566
ag674
ag971
ag572
ag459
ag574
ag159
ag262
ag142
ag143
ag577
ag578
ag581
ag582
ag583
ag709
ag584
ag487
ag973
ag676
ag588
ag422
ag590
ag757
ag1449
ag403
ag903
ag798
ag794
ag1483
ag275
ag300
ag1453
aS'DB12364'
p1566
ag597
ag598
ag599
ag600
aS'DB08828'
p1567
ag602
ag1466
aS'DB00799'
p1568
ag603
ag604
ag606
ag609
ag958
ag611
ag612
ag613
ag614
ag618
ag621
ag623
ag874
ag750
ag512
ag1346
ag450
ag923
ag269
ag395
ag975
ag337
ag1463
ag630
ag631
ag632
asS'QT Prolongation'
p1569
(lp1570
g283
ag257
ag58
ag315
ag637
ag42
ag49
ag50
ag644
ag81
ag109
ag695
ag826
ag1376
aS'DB00557'
p1571
ag123
ag189
ag71
ag281
ag121
ag170
ag102
ag191
ag43
ag726
ag701
ag702
ag407
ag527
ag13
ag27
ag358
ag731
aS'DB06702'
p1572
ag781
ag910
ag237
ag1379
ag912
ag640
ag274
ag292
ag498
aS'DB11730'
p1573
ag331
ag1558
ag736
ag457
ag101
ag16
ag82
ag1483
ag339
ag928
ag550
ag549
ag74
ag621
ag677
ag728
ag567
ag496
ag303
ag676
ag215
aS'DB08903'
p1574
ag593
ag400
ag661
ag531
ag188
ag604
ag310
ag919
ag564
ag1479
aS'DB11455'
p1575
ag463
ag1459
ag356
asS'Completed suicide'
p1576
(lp1577
g712
ag149
ag153
ag160
ag24
ag164
ag165
ag166
ag167
ag177
ag189
ag190
ag192
ag637
ag194
ag26
ag27
ag214
ag224
ag39
aS'DB00431'
p1578
ag232
ag104
ag237
ag315
ag44
ag244
ag222
ag247
ag158
ag642
ag51
ag217
ag249
ag250
ag251
ag721
ag13
ag52
ag204
ag255
ag386
ag646
ag109
ag823
ag58
ag528
ag695
ag527
ag274
ag63
ag825
ag281
ag726
ag283
ag290
ag296
ag300
ag1541
ag307
ag308
ag759
ag728
ag81
ag313
ag700
ag731
ag862
ag327
ag331
ag340
ag169
ag345
ag101
ag361
ag354
ag357
ag1493
ag360
ag840
ag912
ag742
ag402
ag407
ag833
ag657
ag738
ag811
ag419
ag739
ag741
ag814
ag423
ag42
ag431
ag140
ag292
aS'DB05246'
p1579
ag295
ag452
ag454
ag456
aS'DB01656'
p1580
ag664
ag469
ag235
ag399
ag197
ag926
ag666
ag480
ag748
ag927
ag511
ag962
ag1477
ag74
aS'DB00754'
p1581
ag946
ag899
ag887
ag1480
ag133
aS'DB05676'
p1582
ag587
ag522
ag842
ag1448
ag589
ag1498
ag591
ag1425
ag546
ag610
ag617
aS'DB05541'
p1583
ag623
ag750
ag760
ag630
asS'Pancreatitis'
p1584
(lp1585
g6
ag756
ag149
ag150
ag153
ag7
ag805
ag154
ag780
ag820
ag157
ag159
ag160
ag24
ag162
ag994
ag128
ag167
ag10
ag171
ag177
ag86
ag14
ag15
ag16
ag17
ag18
ag939
ag19
ag180
ag184
ag21
ag23
ag189
ag190
ag75
ag192
ag25
ag662
ag195
ag200
ag201
ag27
ag28
ag187
ag204
ag205
ag206
ag30
ag32
ag33
ag214
ag34
ag35
ag123
ag37
ag222
ag223
ag806
ag38
ag224
ag225
ag940
ag40
ag229
ag230
ag232
ag233
ag41
ag104
ag42
ag71
ag43
ag169
ag665
ag667
ag1005
ag45
ag46
ag243
ag48
ag49
ag50
ag51
ag249
ag251
ag13
ag52
ag53
ag54
ag256
ag386
ag663
ag260
ag946
ag277
ag265
ag58
ag266
ag267
ag739
ag741
ag59
ag60
ag1529
ag293
ag272
ag275
ag62
ag278
ag514
ag281
ag315
ag283
ag807
ag527
ag70
ag155
ag290
ag727
ag292
ag72
ag294
ag297
ag779
ag1540
ag300
ag301
ag74
ag808
ag302
ag100
ag303
ag944
ag76
ag77
ag78
ag304
ag943
ag307
ag309
ag310
ag80
ag311
ag312
ag81
ag314
ag82
ag945
ag319
ag701
ag702
ag83
ag322
ag947
ag791
ag862
ag1544
ag333
ag186
ag334
ag809
ag87
ag262
ag89
ag90
ag91
ag92
ag242
ag215
ag209
ag94
ag95
ag340
ag183
ag343
ag259
ag345
ag347
ag69
ag774
ag98
ag99
ag248
ag101
ag652
ag63
ag356
ag106
ag349
ag360
ag434
ag357
ag366
ag372
ag384
ag952
ag107
ag108
ag941
ag1548
ag387
ag388
ag109
ag390
ag393
ag110
ag398
ag400
ag403
ag405
ag407
ag114
ag115
ag410
ag657
ag737
ag414
ag413
ag416
ag811
ag740
ag419
ag420
ag956
ag421
ag872
ag264
ag957
ag948
ag518
ag145
ag437
ag440
ag140
ag441
ag286
ag1395
ag659
ag120
ag121
ag815
ag816
ag449
ag379
ag1558
ag408
ag768
ag707
ag139
ag144
ag133
ag456
ag692
ag460
ag126
ag462
ag463
ag671
ag465
ag817
ag664
ag469
ag470
ag130
ag131
ag475
ag129
ag112
ag485
ag486
aS'DB01278'
p1586
ag1539
ag269
ag498
ag500
ag502
ag503
ag197
ag735
ag507
ag510
ag916
ag749
ag512
ag236
ag358
ag531
ag532
ag534
ag1426
ag536
ag793
ag517
ag538
ag539
ag522
ag541
ag966
ag544
ag127
ag1431
ag548
ag549
ag550
ag551
ag1435
ag559
ag895
ag564
ag900
ag953
ag143
ag1441
ag586
ag902
ag589
ag1449
ag591
ag593
ag146
ag1483
ag598
ag600
ag1466
ag1425
ag164
ag742
ag610
ag800
ag801
ag1459
ag619
ag621
ag624
ag626
ag760
ag117
ag395
ag629
ag630
asS'Edema'
p1587
(lp1588
g142
ag712
aS'DB00257'
p1589
ag716
ag6
ag13
ag175
ag678
ag591
ag279
aS'DB00825'
p1590
ag1326
ag688
ag448
ag1521
ag7
aS'DB01164'
p1591
ag1522
ag1523
ag1524
ag989
ag8
aS'DB06707'
p1592
ag853
ag402
ag462
ag160
ag24
ag153
ag164
ag988
aS'DB09409'
p1593
aS'DB14498'
p1594
ag166
aS'DB00523'
p1595
ag683
ag685
ag686
ag838
ag167
ag170
ag822
ag10
ag171
ag11
ag177
ag1525
ag86
ag14
ag15
ag16
ag17
ag18
ag1527
ag939
ag19
ag389
ag20
ag635
ag1474
ag184
ag185
ag21
ag22
ag188
ag23
ag189
ag190
ag849
ag639
ag75
ag931
ag848
ag191
ag192
ag885
ag620
ag140
ag662
ag637
ag238
ag186
ag169
ag194
ag638
ag195
ag196
ag197
ag26
ag149
ag200
ag27
ag28
ag202
ag204
ag206
ag45
ag207
ag208
ag209
ag210
ag397
ag311
ag211
ag1528
ag212
ag107
ag34
ag217
ag319
ag35
ag219
ag774
ag36
ag37
ag221
ag222
ag38
ag225
ag226
ag940
ag1002
ag1003
ag156
ag548
ag852
aS'DB00401'
p1596
ag1004
ag232
ag233
ag41
aS'DB01023'
p1597
ag104
ag234
ag42
ag43
ag52
ag315
ag665
ag44
ag1077
ag1078
ag241
ag46
ag245
ag73
ag592
ag47
ag48
ag1376
ag642
ag51
ag1184
ag1185
ag1186
ag1187
ag1079
ag1080
ag996
ag1188
ag1189
ag1081
ag1016
ag1017
ag1018
ag1019
ag891
ag1020
ag1024
ag1025
ag997
ag1058
ag1026
ag1030
ag1031
ag1032
ag1082
ag1083
ag1084
ag1038
ag1193
ag1195
ag1196
ag1061
ag1085
ag1198
ag1201
ag1202
ag1203
ag1205
ag1039
ag1040
ag1041
ag1007
ag1042
ag998
ag1277
ag1063
ag1210
ag859
ag999
ag1211
ag1213
ag1064
ag1214
ag1215
ag1217
ag1221
ag1223
ag1226
ag1278
ag1088
ag1228
ag1229
ag1066
ag1068
ag1000
ag1231
ag1239
ag1048
ag1243
ag1070
ag1001
ag1245
ag1246
ag1251
ag1049
ag1051
ag1262
ag1053
ag1071
ag1072
ag1092
ag1093
ag1094
ag1095
ag1073
ag1074
ag1267
ag1056
ag1096
ag1097
ag1098
ag1099
ag1100
ag1075
ag342
ag249
ag250
ag251
ag55
ag760
ag159
ag253
ag53
ag54
ag254
ag255
ag857
ag694
ag256
ag386
ag1338
ag645
ag258
aS'DB01638'
p1598
ag327
ag646
ag56
ag941
ag263
ag946
ag31
ag265
ag766
ag58
ag267
ag59
ag60
ag145
ag858
ag1529
ag82
ag272
ag61
ag274
ag276
ag724
ag62
ag277
ag63
ag64
ag514
ag280
ag281
ag283
ag292
ag821
ag285
ag1341
aS'DB00602'
p1599
ag139
ag1413
ag1067
ag9
ag67
ag860
ag468
ag288
ag69
aS'DB00865'
p1600
ag289
ag291
ag70
ag827
ag727
ag293
ag71
ag72
aS'DB01046'
p1601
ag296
ag297
aS'DB00548'
p1602
ag943
ag536
ag74
ag808
ag302
ag100
ag30
ag518
ag522
ag524
ag303
aS'DB01579'
p1603
ag304
ag944
ag966
ag956
ag1541
ag77
ag78
ag307
ag743
ag648
ag309
ag401
ag759
ag806
ag88
aS'DB04930'
p1604
ag310
ag80
ag1543
ag50
ag81
ag470
ag671
ag313
ag730
ag266
ag945
ag1344
ag317
ag176
ag705
ag701
ag702
ag861
ag650
ag731
ag83
ag322
aS'DB00768'
p1605
ag947
ag84
ag85
ag323
ag862
ag732
ag948
ag663
ag314
ag1346
ag809
ag89
ag864
ag1191
ag1192
ag1194
ag1257
ag1260
ag90
aS'DB00654'
p1606
ag242
ag215
ag123
ag336
ag953
ag94
ag312
ag95
ag339
ag340
ag767
ag1364
ag183
ag343
ag734
ag345
ag346
ag96
ag1365
ag348
ag349
ag350
ag585
ag351
ag98
ag99
aS'DB01214'
p1607
ag101
ag102
ag651
ag103
ag135
ag356
ag1368
ag951
ag105
ag92
ag520
ag521
ag523
ag525
ag526
ag106
ag360
ag361
ag713
ag1059
ag1045
ag1247
ag1371
ag357
ag366
ag368
ag369
ag435
ag371
aS'DB09502'
p1608
ag372
ag829
ag385
ag952
ag108
ag1548
ag387
ag911
ag1380
ag109
ag282
ag390
ag742
ag773
ag868
ag785
ag270
ag787
ag399
ag831
ag400
ag516
ag519
ag403
ag1370
aS'DB00742'
p1609
ag406
ag407
ag832
aS'DB00428'
p1610
ag1550
ag114
ag409
ag115
ag1339
ag116
ag410
ag657
ag737
ag870
ag738
ag414
ag413
ag1552
ag1553
ag121
ag658
ag353
ag374
ag375
ag377
ag378
ag627
ag379
ag380
ag381
ag382
ag517
aS'DB11750'
p1611
ag1389
ag420
ag421
ag422
ag539
ag1494
ag423
ag424
ag913
ag995
ag872
ag1406
ag427
ag1455
ag428
ag429
ag782
ag431
aS'DB01130'
p1612
ag880
aS'DB09161'
p1613
ag1391
ag783
ag706
ag432
ag769
ag237
ag784
ag441
ag286
ag667
aS'DB06770'
p1614
ag958
ag444
ag659
aS'DB00270'
p1615
ag445
ag515
ag120
ag449
ag273
ag684
ag127
ag451
ag1400
ag452
ag873
ag454
ag408
aS'DB00553'
p1616
ag653
ag1402
ag878
ag416
ag144
ag133
ag456
ag692
ag125
ag240
ag457
ag126
ag1405
ag128
ag465
ag817
aS'DB00896'
p1617
aS'DB06403'
p1618
aS'DB14106'
p1619
ag1559
ag792
ag129
ag471
ag130
ag131
ag474
ag1437
ag584
ag478
ag481
ag134
ag1411
ag365
ag492
ag137
ag703
ag1586
ag758
ag626
ag1407
aS'DB11063'
p1620
ag68
ag961
ag559
ag391
ag494
ag495
ag332
ag496
ag498
ag886
ag500
aS'DB00039'
p1621
ag1565
ag502
ag888
ag889
ag1562
ag199
ag1422
ag1382
ag508
aS'DB06794'
p1622
ag512
ag513
ag892
ag893
ag917
ag1424
ag750
ag751
ag528
ag1425
ag964
ag534
ag535
ag1426
ag352
ag537
aS'DB00834'
p1623
ag538
ag1428
ag165
ag895
ag542
ag544
ag884
ag546
ag752
ag1432
ag794
ag549
ag551
ag553
ag1367
ag754
ag755
aS'DB08932'
p1624
ag388
ag557
ag1568
ag673
ag896
ag898
ag739
ag740
ag741
ag562
ag968
ag565
ag900
ag561
ag566
ag567
ag795
ag920
ag569
ag571
ag573
ag1480
ag574
ag393
ag1573
ag576
ag577
ag578
ag1442
ag583
ag793
ag511
aS'DB11943'
p1625
ag675
ag586
ag1447
ag1448
ag589
ag903
ag146
ag306
ag594
ag1483
ag597
ag601
ag1466
ag677
ag607
ag1456
ag609
ag614
ag905
ag800
ag801
ag619
ag621
ag624
ag117
ag628
ag269
ag395
ag629
asS'Generalized tonic-clonic seizure'
p1626
(lp1627
g142
ag158
ag644
ag184
ag991
ag660
ag637
ag195
ag27
ag217
ag224
ag39
ag233
ag42
ag249
ag374
ag524
ag145
ag776
ag232
ag722
ag264
ag69
ag824
ag63
ag281
ag826
ag778
ag300
ag307
ag308
ag309
ag24
ag731
ag165
ag355
ag183
ag343
ag774
ag13
ag361
ag106
ag194
ag109
ag404
ag833
ag327
ag522
ag854
ag420
ag814
ag424
ag518
ag1579
ag515
ag517
ag785
ag237
ag786
ag456
ag879
ag689
ag380
ag508
ag255
ag528
ag965
ag541
ag544
aS'DB00907'
p1628
ag577
ag800
ag801
ag623
asS'Sepsis'
p1629
(lp1630
g6
ag7
ag805
ag1592
ag853
ag548
ag164
aS'DB00277'
p1631
aS'DB01223'
p1632
ag822
ag177
ag86
ag18
ag806
ag19
ag848
ag181
ag184
ag21
ag188
ag23
ag662
ag374
ag992
ag195
ag198
ag140
ag211
ag214
ag37
ag245
ag156
ag852
ag233
ag186
ag665
ag45
ag46
ag51
ag249
ag52
ag53
ag54
ag258
ag263
ag264
ag663
ag639
ag82
ag293
ag280
ag139
ag290
ag302
ag76
ag77
ag28
ag79
ag307
ag80
ag316
ag83
ag328
ag332
ag333
ag809
ag98
ag521
ag523
ag88
ag327
ag90
ag1545
ag95
ag97
ag348
ag350
ag351
ag536
ag342
ag63
ag104
ag106
ag361
ag434
ag369
ag1548
ag393
ag16
ag396
ag206
ag407
ag112
ag857
ag266
ag48
ag657
ag870
ag414
ag416
ag121
ag946
ag422
ag814
ag913
ag118
ag872
ag427
ag428
ag429
ag902
ag520
ag782
ag525
ag526
ag437
ag1394
ag516
ag519
ag783
ag784
ag91
ag286
ag443
ag659
ag445
ag451
ag518
ag145
ag408
ag707
ag144
ag133
ag456
ag692
ag125
ag556
ag1403
ag458
ag126
ag461
ag462
ag880
ag1530
ag671
ag664
ag792
ag130
ag474
ag237
ag476
ag888
ag889
ag129
ag479
ag132
ag481
ag482
ag487
ag470
ag648
ag493
ag494
ag495
ag496
ag886
ag1419
ag502
ag503
ag505
ag915
ag509
ag510
ag962
ag47
ag890
ag512
ag513
ag683
ag685
ag686
ag708
ag515
ag517
ag522
ag524
ag894
ag531
ag532
ag964
ag534
ag535
ag918
ag539
ag538
ag1430
ag544
ag545
ag127
ag752
ag922
ag1426
ag549
ag550
ag551
ag553
ag1434
ag554
ag388
ag555
ag562
ag563
ag565
ag900
ag567
ag795
ag568
ag1628
ag574
ag142
ag143
ag1481
ag421
ag577
ag578
ag581
ag1446
ag1482
ag100
ag589
ag590
ag921
ag593
ag146
ag594
ag595
ag596
ag597
ag599
ag600
ag601
ag1345
ag603
ag604
ag605
ag677
ag1484
ag1485
ag612
ag613
ag618
ag619
ag802
ag624
ag625
ag626
ag450
ag667
ag1005
ag420
ag1463
ag629
ag630
ag631
asS'Pulmonary edema'
p1633
(lp1634
g1591
ag1522
ag1523
ag1524
ag989
ag152
ag8
ag158
ag160
ag24
ag153
ag1593
ag1594
ag527
ag170
ag171
ag177
ag14
ag18
ag181
ag377
ag636
ag190
ag191
ag662
ag198
ag201
ag32
ag211
ag33
ag107
ag908
ag21
ag38
ag225
ag229
ag524
ag145
ag233
ag234
ag42
ag186
ag665
ag518
ag854
ag13
ag52
aS'DB03754'
p1635
ag857
ag55
ag646
ag264
ag57
ag58
ag69
ag858
ag41
ag274
ag275
ag63
ag205
aS'DB00871'
p1636
ag288
ag289
ag292
ag297
ag301
ag302
ag522
ag1541
ag78
ag304
ag307
ag648
ag309
ag517
ag759
ag806
ag311
ag312
ag240
ag82
ag319
ag199
ag701
ag702
ag84
ag85
ag88
ag663
ag330
ag809
ag864
ag520
ag98
ag521
ag523
ag525
ag526
ag242
ag183
ag343
ag345
ag348
ag350
ag100
ag101
ag639
ag652
ag135
ag1609
ag92
ag349
ag75
ag357
ag366
ag86
ag382
ag384
aS'DB08941'
p1637
ag62
ag387
ag398
ag1377
ag393
ag396
ag868
ag785
ag400
ag516
ag519
ag784
ag861
ag548
ag164
ag657
ag413
ag414
ag420
ag422
ag913
ag31
ag115
ag428
ag429
ag605
ag539
ag782
ag437
ag353
ag440
ag89
ag140
ag783
ag443
ag445
ag120
ag988
ag1401
ag408
ag133
ag456
ag692
ag144
ag139
ag457
ag462
ag880
ag671
ag1618
ag792
ag235
ag94
ag130
ag515
ag478
ag882
ag884
ag470
ag667
ag1419
ag1502
ag505
aS'DB00988'
p1638
ag512
ag661
ag893
ag534
ag290
ag538
ag541
ag895
ag544
ag930
ag929
ag550
ag551
ag1624
ag558
ag1469
ag896
ag567
ag674
ag568
ag574
ag577
ag578
ag902
ag676
ag903
ag146
ag594
ag1483
ag799
ag609
ag108
ag620
ag624
ag16
ag632
asS'Hypertension'
p1639
(lp1640
g6
ag13
ag175
ag442
ag7
ag8
ag805
ag1592
ag853
ag158
ag1376
ag164
aS'DB06711'
p1641
ag301
ag988
ag989
ag165
ag527
ag166
ag994
ag170
ag10
ag174
ag176
ag177
ag86
ag18
ag806
ag939
ag848
ag181
ag930
ag929
ag635
ag184
ag718
ag186
ag169
ag21
aS'DB00478'
p1642
ag636
ag188
ag23
ag189
ag190
ag849
ag639
ag931
ag192
ag885
ag25
ag620
ag140
ag662
ag637
ag194
ag195
ag139
ag196
ag197
ag199
ag26
ag27
ag460
ag202
ag29
ag204
ag206
ag208
ag768
ag211
ag640
ag773
ag214
ag216
ag327
ag1492
ag34
ag908
ag851
ag221
ag222
ag39
ag227
ag245
ag548
ag228
ag940
ag995
ag852
ag232
ag233
ag104
ag42
ag641
ag236
ag665
ag44
ag909
ag45
ag46
ag244
aS'DB00211'
p1643
ag592
ag247
ag47
ag642
ag51
ag855
ag856
ag249
ag250
ag643
ag251
ag55
ag52
ag1473
ag178
ag53
ag54
ag254
ag255
ag857
ag694
ag135
ag256
ag663
ag342
ag645
ag260
ag646
ag941
ag264
ag946
ag983
ag31
ag1469
ag58
ag528
ag59
ag60
ag85
ag258
ag69
ag858
ag824
ag82
ag272
ag277
ag63
ag1636
ag279
ag514
ag825
aS'DB01012'
p1644
ag281
ag826
ag726
ag283
ag292
ag821
ag807
ag647
ag285
ag1341
aS'DB00696'
p1645
ag667
ag696
ag697
ag698
ag860
ag942
ag291
ag1410
ag293
ag699
ag295
ag296
ag68
ag299
ag73
ag300
ag943
ag536
ag808
ag302
ag100
ag303
ag346
ag944
ag76
ag966
ag956
ag736
ag307
ag308
ag759
ag728
ag310
ag80
ag311
ag81
ag700
ag315
ag730
ag945
ag317
ag649
ag470
ag701
ag702
ag861
ag650
ag83
ag322
ag268
ag947
ag84
aS'DB00279'
p1646
ag862
ag88
ag948
ag627
ag328
ag323
ag1544
ag331
ag1346
ag334
ag809
ag335
ag358
ag682
ag242
ag215
ag123
ag336
ag953
ag209
ag949
ag950
ag95
ag339
ag340
ag767
ag183
ag343
ag374
ag376
ag1546
ag377
ag1534
ag379
ag144
ag1537
ag380
ag381
ag382
ag1382
ag345
ag96
ag347
ag774
aS'DB12481'
p1647
aS'DB00979'
p1648
ag348
ag351
ag98
ag99
ag1607
ag101
ag102
ag353
ag219
ag651
ag103
aS'DB06802'
p1649
ag652
aS'DB00287'
p1650
ag356
ag1609
ag951
ag357
ag105
ag19
ag106
ag360
ag361
ag713
ag365
ag935
ag1499
ag735
ag373
aS'DB00292'
p1651
ag952
ag159
ag758
ag24
ag304
ag1379
ag388
ag109
ag282
ag389
ag912
ag1549
ag448
ag654
ag1381
ag390
ag391
ag392
ag16
ag868
ag785
ag522
ag524
ag145
ag1384
ag399
ag400
ag402
ag810
ag107
ag404
ag127
ag750
ag406
ag407
ag705
ag160
ag655
ag408
ag115
aS'DB09421'
p1652
ag656
ag410
ag1386
ag1387
ag657
ag737
ag870
ag738
aS'DB06826'
p1653
ag414
ag413
ag415
ag1553
ag121
ag658
ag813
ag1388
ag1389
ag419
ag420
ag421
ag517
ag518
ag539
ag423
ag913
ag695
ag428
ag429
ag430
ag1638
ag431
ag880
ag957
ag67
ag1393
ag706
ag1474
ag432
ag314
ag437
ag1555
ag873
ag90
ag286
ag1395
ag958
ag443
ag444
ag659
ag445
ag515
ag660
ag120
ag874
ag731
ag648
ag708
ag743
ag450
ag786
ag661
ag1399
aS'DB04920'
p1654
ag1558
ag452
ag454
ag1402
ag481
ag707
ag133
ag456
ag692
ag125
aS'DB09083'
p1655
ag458
ag459
ag126
ag462
ag463
aS'DB09142'
p1656
ag1405
ag128
ag671
ag817
ag466
ag467
ag664
aS'DB14082'
p1657
ag469
ag1559
ag792
ag129
ag1530
ag1515
ag1557
ag77
ag1533
ag130
ag959
ag131
aS'DB11659'
p1658
aS'DB11916'
p1659
aS'DB11835'
p1660
ag934
ag960
ag237
ag476
aS'DB08893'
p1661
ag478
ag132
ag883
ag482
ag134
ag136
ag484
ag137
ag703
ag487
ag884
aS'DB00692'
p1662
ag626
aS'DB00905'
p1663
ag1412
ag1510
ag765
ag822
ag490
ag1413
ag493
ag494
ag495
ag332
ag498
ag886
ag1415
ag1418
ag1565
ag1419
ag502
ag505
ag928
ag962
ag520
ag521
ag523
ag525
ag526
ag963
ag890
ag668
ag512
ag513
ag892
ag893
ag917
ag516
ag519
ag894
ag751
ag670
ag532
ag964
ag534
ag535
ag965
ag1563
ag1623
ag538
ag1428
ag141
ag370
ag895
ag672
ag1430
ag1476
ag542
ag544
ag896
ag1431
ag1495
ag752
ag922
ag263
ag1426
ag549
ag550
ag551
ag552
ag796
ag797
ag553
ag554
ag754
ag755
ag555
ag1368
ag967
ag673
ag559
ag898
ag1436
ag1437
aS'DB00325'
p1664
ag968
ag457
ag564
ag565
ag566
ag567
ag674
ag901
ag920
ag569
ag969
ag1440
aS'DB00648'
p1665
ag971
ag1480
ag574
ag575
ag393
ag142
ag143
ag576
ag644
ag577
ag578
ag579
ag1442
ag581
ag583
ag1625
ag584
ag675
ag1446
ag586
ag902
ag676
ag588
ag842
ag589
ag742
ag903
ag1343
ag591
ag146
ag1514
ag594
ag936
ag1483
ag596
ag1453
ag1566
ag597
ag598
ag599
ag601
ag1466
ag799
ag603
ag961
ag1484
ag608
ag1456
ag609
ag1485
ag611
ag612
ag615
ag617
ag678
ag679
ag621
ag622
aS'DB14569'
p1666
ag628
ag1005
ag975
ag1463
ag1438
ag629
ag630
ag631
ag632
asS'Proteinuria'
p1667
(lp1668
g6
ag527
ag167
ag15
ag16
ag17
ag21
ag23
ag25
ag201
ag29
ag30
ag213
ag35
ag233
ag239
ag45
ag46
ag226
ag51
ag13
ag52
ag253
ag53
ag54
ag55
ag56
ag58
ag739
ag741
ag59
ag1551
ag301
ag1541
ag307
ag648
ag80
ag70
ag24
ag320
ag322
aS'DB00700'
p1669
ag791
ag88
ag91
ag92
ag336
ag209
ag333
ag95
ag96
ag347
ag830
ag348
ag101
ag103
ag434
ag363
ag1371
ag357
ag840
ag62
ag107
ag912
ag397
ag400
ag408
ag1610
ag114
ag349
ag411
ag740
ag811
ag425
ag913
ag432
ag837
ag873
ag292
ag1579
ag815
ag816
ag75
ag123
ag1526
ag126
ag463
ag817
ag836
ag664
ag959
ag475
ag309
ag476
ag129
ag745
ag746
ag626
aS'DB00566'
p1670
ag933
ag914
ag498
ag841
ag500
ag512
ag513
ag139
ag140
ag535
ag541
ag1430
ag544
ag127
ag263
ag1432
ag549
ag195
ag553
ag1368
ag564
ag566
ag1440
ag581
ag144
ag133
ag145
ag100
ag1483
ag108
ag450
ag1462
asS'Peripheral neuropathy'
p1671
(lp1672
g716
ag150
ag8
ag154
ag780
ag820
ag159
ag160
ag24
ag153
ag166
ag170
ag172
ag173
ag177
ag14
ag18
ag190
ag849
ag639
ag75
ag192
ag620
ag140
ag662
ag238
ag186
ag169
ag195
ag196
ag197
ag26
ag28
ag204
ag32
ag211
ag33
ag35
ag37
ag226
ag40
ag852
ag232
ag233
ag42
ag641
ag665
ag25
ag13
ag44
ag243
ag47
ag48
ag49
ag50
ag642
ag249
ag250
ag251
ag254
ag255
ag256
ag386
ag342
ag645
ag258
ag55
ag646
ag264
ag265
ag46
ag58
ag739
ag741
ag59
ag269
ag293
ag724
ag277
ag63
ag280
ag324
ag65
ag66
ag290
ag827
ag727
ag272
ag71
ag72
ag294
ag295
ag296
ag74
ag302
ag303
ag304
ag305
ag76
ag77
ag307
ag648
ag225
ag806
ag81
ag314
ag700
ag266
ag82
ag316
ag317
ag649
ag701
ag702
ag861
ag650
ag731
ag791
ag663
ag327
ag328
ag1346
ag809
ag262
ag90
ag91
ag336
ag209
ag345
ag1365
ag97
ag347
ag348
ag351
ag101
ag102
ag354
ag735
ag356
ag857
ag106
ag361
ag362
ag363
ag349
ag371
ag86
ag372
ag1368
ag388
ag185
aS'DB00822'
p1673
ag391
ag392
ag393
ag111
ag397
ag396
ag399
ag400
ag403
ag1370
ag407
ag655
ag548
ag114
ag656
ag657
ag413
ag678
ag811
ag1553
ag740
ag420
ag913
ag92
ag431
ag36
ag222
ag437
ag286
ag958
ag443
ag815
ag816
ag434
ag452
ag453
ag454
ag408
ag1402
aS'DB02659'
p1674
ag133
ag456
ag692
ag144
ag139
ag458
ag462
ag463
ag671
ag465
ag817
ag664
ag130
ag472
ag474
ag475
ag387
ag478
ag483
ag1376
ag112
ag1670
ag489
ag470
ag1551
ag491
ag493
ag841
ag506
ag507
ag508
ag510
ag890
ag513
ag369
ag894
ag528
ag1425
ag530
ag531
ag532
ag319
ag534
ag918
ag537
ag893
ag543
ag544
ag546
ag547
ag550
ag551
ag552
ag553
ag559
ag560
ag1437
aS'DB01270'
p1675
ag920
ag569
ag571
ag1480
ag574
ag575
ag577
ag578
ag582
ag1625
ag584
ag487
ag518
ag145
ag588
aS'DB06788'
p1676
ag590
ag903
ag798
ag593
ag1451
ag600
ag603
ag606
ag677
ag607
ag758
ag800
ag801
ag1459
ag618
ag619
ag621
ag622
ag874
ag624
ag542
ag626
ag1666
ag117
ag395
ag629
ag630
asS'Myocardial infarction'
p1677
(lp1678
g939
ag6
ag279
ag682
ag176
ag691
ag1539
aS'DB11082'
p1679
ag1509
aS'DB00971'
p1680
ag1510
ag842
ag131
ag522
ag1512
ag688
ag1513
ag468
ag140
ag353
ag1382
ag13
ag692
ag21
ag591
ag133
ag986
ag789
ag1662
ag8
ag155
ag160
ag24
ag153
ag301
ag165
ag166
ag838
ag170
ag10
ag171
ag11
ag177
ag14
ag18
ag181
ag930
ag929
ag635
ag184
ag185
ag23
ag189
ag190
ag75
ag192
ag662
ag637
ag638
ag196
ag197
ag199
ag26
ag27
ag164
ag460
ag202
ag204
ag207
ag208
ag209
ag210
ag32
ag620
ag33
ag716
ag214
ag216
ag240
ag107
ag774
ag38
ag940
ag156
ag548
ag852
ag1596
ag233
ag41
ag1597
ag104
ag234
ag42
ag641
ag45
ag46
ag242
ag247
ag226
ag51
ag855
ag856
ag251
ag249
ag252
ag53
ag54
ag254
ag255
ag857
ag694
ag256
ag258
ag646
ag941
ag264
ag946
ag277
ag31
ag1469
ag58
ag59
ag60
ag777
ag272
ag276
ag724
ag63
ag1636
ag280
ag281
ag726
ag805
ag695
ag647
ag1341
ag527
ag67
ag69
ag230
ag290
ag727
ag293
ag296
ag779
ag299
ag73
ag300
ag943
ag536
ag304
ag944
ag966
ag956
ag1541
ag78
ag736
ag307
ag743
ag648
ag225
ag806
ag310
ag80
ag311
ag81
ag313
ag70
ag82
ag945
ag649
ag701
ag702
ag650
ag83
ag486
ag322
ag268
ag947
ag84
ag85
ag30
ag862
ag732
ag948
ag663
ag1544
ag330
ag934
ag809
ag88
ag864
ag829
ag1545
ag215
ag123
ag336
ag953
ag949
ag950
ag94
ag35
ag339
ag340
ag183
ag343
ag346
ag96
ag348
ag351
ag98
ag99
ag1607
ag100
ag101
ag651
ag354
ag103
ag652
ag356
ag951
ag19
ag106
ag361
ag297
ag349
ag365
ag236
ag935
ag86
ag372
ag373
ag384
ag952
ag62
ag387
ag758
ag92
ag109
ag912
ag34
ag1673
ag389
ag390
ag773
ag371
ag397
ag399
ag400
ag402
ag861
ag655
aS'DB09352'
p1681
aS'DB00809'
p1682
ag114
ag115
ag656
ag657
ag870
ag954
ag121
ag77
ag658
ag420
ag421
ag1646
ag913
ag871
ag872
ag108
ag431
ag957
ag314
ag437
ag441
ag292
ag958
ag1615
ag445
ag660
ag120
ag988
ag742
ag1346
ag450
ag319
ag273
ag379
ag661
ag1654
ag1558
ag452
ag454
ag481
ag139
ag144
ag456
ag125
ag518
ag145
ag126
ag463
ag592
ag127
ag128
ag671
ag664
ag469
ag129
aS'DB11346'
p1683
ag130
ag959
ag474
ag408
ag960
ag665
ag728
ag476
ag16
ag478
ag134
ag416
ag492
ag137
ag487
ag1571
ag626
ag961
ag470
ag667
ag493
ag501
ag410
ag1417
ag502
ag504
ag505
ag963
ag890
ag893
ag528
ag670
ag964
ag1664
ag534
ag535
ag965
ag1426
ag352
ag211
ag858
ag327
ag541
ag895
ag672
ag52
ag542
ag544
ag752
ag342
ag645
ag547
ag549
ag550
ag551
ag552
ag1573
ag1434
ag554
ag28
ag517
ag524
ag555
ag315
aS'DB09165'
p1684
ag967
ag673
ag559
ag896
ag898
ag1437
ag1675
ag968
ag564
ag639
ag900
ag566
ag567
ag674
ag141
ag969
ag971
ag573
ag574
ag575
ag142
ag143
ag576
ag577
ag578
ag1442
ag581
ag584
ag675
ag902
ag973
ag1676
ag825
ag903
ag1609
ag593
ag146
ag598
ag393
ag601
ag602
ag603
ag47
ag1521
ag512
aS'DB00800'
p1685
ag875
ag630
asS'Stevens-Johnson Syndrome'
p1686
(lp1687
g712
ag6
ag7
ag8
ag157
ag160
ag24
ag153
ag9
ag527
ag10
ag50
ag177
ag12
ag14
ag15
ag16
ag17
ag18
ag179
ag19
ag930
ag929
ag182
ag183
ag185
ag21
ag187
ag188
ag23
ag189
ag192
ag193
ag195
ag201
ag28
ag202
ag203
ag669
ag30
ag32
ag213
ag33
ag215
ag216
ag107
ag34
ag218
ag35
ag123
ag220
ag13
ag774
ag36
ag37
ag222
ag223
ag71
ag38
ag225
ag39
ag40
ag229
ag232
ag234
ag42
ag43
ag237
ag239
ag44
ag45
ag46
ag246
ag47
ag248
ag48
ag49
ag51
ag856
ag249
ag250
ag251
ag775
ag159
ag253
ag53
ag54
ag693
ag857
ag256
ag1338
ag257
ag55
ag261
ag264
ag57
ag31
ag1469
ag75
ag265
ag142
ag58
ag59
ag60
ag41
ag777
ag272
ag274
ag460
ag276
ag724
ag277
ag278
ag64
ag282
ag283
ag695
ag285
ag1341
aS'DB00646'
p1688
ag1599
ag287
ag288
ag69
ag290
ag70
ag204
ag727
ag293
ag72
ag385
ag297
ag779
ag1540
ag299
ag301
ag74
ag100
ag303
ag305
ag76
ag77
ag78
ag79
ag304
ag308
ag309
ag310
ag80
ag81
ag313
ag314
ag266
ag82
ag318
ag319
ag83
ag268
ag84
ag85
ag326
ag88
ag328
ag86
ag329
ag180
ag1345
ag281
ag333
ag262
ag90
ag91
ag92
ag242
ag93
ag336
ag337
ag338
ag343
ag259
ag344
ag734
ag345
ag96
ag97
ag347
ag98
ag99
ag101
ag102
ag361
ag103
aS'DB00706'
p1689
ag63
ag697
ag104
ag1369
ag667
ag696
ag698
ag224
ag357
ag106
ag359
ag349
ag360
ag171
ag364
ag376
ag365
ag275
ag366
ag935
ag205
ag168
ag383
ag384
ag62
ag108
ag941
ag1548
ag387
ag398
ag1377
ag388
ag109
ag226
aS'DB01126'
p1690
ag869
ag167
ag352
ag405
ag407
ag112
ag548
ag833
ag409
ag114
ag912
ag413
ag414
ag386
ag811
ag121
ag417
ag418
ag546
ag420
ag421
ag739
ag741
ag1390
ag425
ag118
ag115
ag238
ag52
ag169
ag186
ag432
ag258
ag644
ag67
ag312
ag440
ag89
ag140
ag441
ag286
ag1579
ag211
ag120
ag447
ag742
ag455
ag270
ag787
ag452
ag408
ag280
ag456
ag125
ag518
ag145
ag699
ag459
ag247
ag126
ag463
ag322
ag334
ag464
ag127
ag128
ag466
ag836
ag664
ag468
ag295
ag792
ag129
ag94
ag130
ag372
ag131
ag472
ag960
ag1661
ag61
ag480
ag133
ag134
ag483
ag135
ag136
ag1386
ag1387
ag137
ag487
ag488
ag840
ag1551
ag914
ag498
ag841
ag500
ag503
ag504
ag505
ag915
ag510
ag511
ag916
ag890
ag828
ag513
ag1424
ag531
ag532
ag533
ag139
ag1426
ag536
ag517
ag539
ag522
ag541
ag701
ag702
ag544
ag815
ag1477
ag545
ag549
ag1581
ag551
ag184
ag554
ag754
ag755
ag1564
ag555
ag559
ag896
ag898
ag893
ag895
ag919
ag457
ag674
ag568
ag479
ag396
ag1480
ag143
ag577
ag578
ag144
ag709
ag584
ag586
ag590
ag903
ag921
ag798
ag146
ag597
ag599
ag603
ag612
ag1459
ag617
ag619
ag624
ag760
ag269
ag395
ag1462
ag629
ag630
asS'Neuroleptic malignant syndrome'
p1691
(lp1692
g152
ag158
ag165
ag184
ag189
ag190
ag192
ag196
ag197
ag27
ag204
ag640
ag219
ag39
ag233
ag315
ag255
ag776
ag109
ag264
ag175
ag58
ag528
ag695
ag824
ag63
ag825
ag826
ag283
ag292
aS'DB14509'
p1693
ag295
ag169
ag778
ag296
ag300
ag307
ag308
ag759
ag728
ag81
ag649
ag321
ag731
ag732
ag331
ag934
ag355
ag933
ag340
ag1473
ag101
ag353
ag354
ag281
ag912
ag635
ag399
ag121
ag637
ag769
ag442
ag444
ag786
ag328
ag471
ag123
ag666
ag478
ag254
ag927
ag962
ag750
ag751
ag1431
ag310
ag522
ag842
ag936
ag843
as.